

Microchip MPLAB XC8 Assembler V3.00 build 20241204225717 
                                                                                               Sat Jul 12 23:47:06 2025

Microchip MPLAB XC8 C Compiler v3.00 (Free license) build 20241204225717 Og1 
     1                           	processor	18F4520
     2                           	fnconf	rparam,??,?,0
     3                           	pagewidth 120
     4                           	opt	flic
     5                           	psect	idataCOMRAM,global,class=CODE,space=0,delta=1,noexec
     6                           	psect	smallconst,global,reloc=2,class=SMALLCONST,space=0,delta=1,noexec
     7                           	psect	cinit,global,reloc=2,class=CODE,space=0,delta=1
     8                           	psect	bssCOMRAM,global,class=COMRAM,space=1,delta=1,lowdata,noexec
     9                           	psect	dataCOMRAM,global,class=COMRAM,space=1,delta=1,lowdata,noexec
    10                           	psect	cstackCOMRAM,global,class=COMRAM,space=1,delta=1,lowdata,noexec
    11                           	psect	text0,global,reloc=2,class=CODE,space=0,delta=1
    12                           	psect	text1,global,reloc=2,class=CODE,space=0,delta=1
    13                           	psect	text2,global,reloc=2,class=CODE,space=0,delta=1
    14                           	psect	text3,global,reloc=2,class=CODE,space=0,delta=1
    15                           	psect	text4,global,reloc=2,class=CODE,space=0,delta=1,group=1
    16                           	psect	text5,global,reloc=2,class=CODE,space=0,delta=1,group=1
    17                           	psect	text6,global,reloc=2,class=CODE,space=0,delta=1,group=1
    18                           	psect	text7,global,reloc=2,class=CODE,space=0,delta=1
    19                           	psect	text8,global,reloc=2,class=CODE,space=0,delta=1
    20                           	psect	text9,global,reloc=2,class=CODE,space=0,delta=1
    21                           	psect	text10,global,reloc=2,class=CODE,space=0,delta=1
    22                           	psect	text11,global,reloc=2,class=CODE,space=0,delta=1
    23                           	psect	text12,global,reloc=2,class=CODE,space=0,delta=1
    24                           	psect	text13,global,reloc=2,class=CODE,space=0,delta=1
    25                           	psect	text14,global,reloc=2,class=CODE,space=0,delta=1
    26                           	psect	text15,global,reloc=2,class=CODE,space=0,delta=1
    27                           	psect	text16,global,reloc=2,class=CODE,space=0,delta=1
    28                           	psect	text17,global,reloc=2,class=CODE,space=0,delta=1
    29                           	psect	text18,global,reloc=2,class=CODE,space=0,delta=1
    30                           	psect	text19,global,reloc=2,class=CODE,space=0,delta=1
    31                           	psect	text20,global,reloc=2,class=CODE,space=0,delta=1
    32                           	psect	text21,global,reloc=2,class=CODE,space=0,delta=1
    33                           	psect	text22,global,reloc=2,class=CODE,space=0,delta=1,group=1
    34                           	psect	text23,global,reloc=2,class=CODE,space=0,delta=1
    35                           	psect	text24,global,reloc=2,class=CODE,space=0,delta=1
    36                           	psect	text25,global,reloc=2,class=CODE,space=0,delta=1
    37                           	psect	intsave_regs,global,class=BIGRAM,space=1,delta=1,noexec
    38                           	psect	rparam,global,class=COMRAM,space=1,delta=1,noexec
    39                           	psect	idloc,global,abs,ovrld,class=IDLOC,space=5,delta=1,noexec
    40                           	psect	config,global,abs,ovrld,class=CONFIG,space=4,delta=1,noexec
    41   000000                     
    42                           ; Version 2.40
    43                           ; Generated 17/11/2021 GMT
    44                           ; 
    45                           ; Copyright © 2021, Microchip Technology Inc. and its subsidiaries ("Microchip")
    46                           ; All rights reserved.
    47                           ; 
    48                           ; This software is developed by Microchip Technology Inc. and its subsidiaries ("Microch
      +                          ip").
    49                           ; 
    50                           ; Redistribution and use in source and binary forms, with or without modification, are
    51                           ; permitted provided that the following conditions are met:
    52                           ; 
    53                           ;     1. Redistributions of source code must retain the above copyright notice, this lis
      +                          t of
    54                           ;        conditions and the following disclaimer.
    55                           ; 
    56                           ;     2. Redistributions in binary form must reproduce the above copyright notice, this 
      +                          list
    57                           ;        of conditions and the following disclaimer in the documentation and/or other
    58                           ;        materials provided with the distribution. Publication is not required when
    59                           ;        this file is used in an embedded application.
    60                           ; 
    61                           ;     3. Microchip's name may not be used to endorse or promote products derived from th
      +                          is
    62                           ;        software without specific prior written permission.
    63                           ; 
    64                           ; THIS SOFTWARE IS PROVIDED BY MICROCHIP "AS IS" AND ANY EXPRESS OR IMPLIED WARRANTIES,
    65                           ; INCLUDING, BUT NOT LIMITED TO, THE IMPLIED WARRANTIES OF MERCHANTABILITY AND FITNESS F
      +                          OR
    66                           ; PURPOSE ARE DISCLAIMED.  IN NO EVENT SHALL MICROCHIP BE LIABLE FOR ANY DIRECT, INDIREC
      +                          T,
    67                           ; INCIDENTAL, SPECIAL, EXEMPLARY, OR CONSEQUENTIAL DAMAGES (INCLUDING BUT NOT LIMITED TO
    68                           ; PROCUREMENT OF SUBSTITUTE GOODS OR SERVICES; LOSS OF USE, DATA OR PROFITS; OR BUSINESS
    69                           ; INTERRUPTION) HOWSOEVER CAUSED AND ON ANY THEORY OF LIABILITY, WHETHER IN CONTRACT, ST
      +                          RICT
    70                           ; LIABILITY, OR TORT (INCLUDING NEGLIGENCE OR OTHERWISE) ARISING IN ANY WAY OUT OF THE U
      +                          SE OF
    71                           ; THIS SOFTWARE, EVEN IF ADVISED OF THE POSSIBILITY OF SUCH DAMAGE.
    72                           ; 
    73                           ; 
    74                           ; Code-generator required, PIC18F4520 Definitions
    75                           ; 
    76                           ; SFR Addresses
    77   000FE0                     bsr             equ	4064
    78   000FE9                     fsr0            equ	4073
    79   000FEA                     fsr0h           equ	4074
    80   000FE9                     fsr0l           equ	4073
    81   000FE1                     fsr1            equ	4065
    82   000FE2                     fsr1h           equ	4066
    83   000FE1                     fsr1l           equ	4065
    84   000FD9                     fsr2            equ	4057
    85   000FDA                     fsr2h           equ	4058
    86   000FD9                     fsr2l           equ	4057
    87   000FEF                     indf0           equ	4079
    88   000FE7                     indf1           equ	4071
    89   000FDF                     indf2           equ	4063
    90   000FF2                     intcon          equ	4082
    91   000000                     nvmcon          equ	0
    92   000FF9                     pcl             equ	4089
    93   000FFA                     pclath          equ	4090
    94   000FFB                     pclatu          equ	4091
    95   000FEB                     plusw0          equ	4075
    96   000FE3                     plusw1          equ	4067
    97   000FDB                     plusw2          equ	4059
    98   000FED                     postdec0        equ	4077
    99   000FE5                     postdec1        equ	4069
   100   000FDD                     postdec2        equ	4061
   101   000FEE                     postinc0        equ	4078
   102   000FE6                     postinc1        equ	4070
   103   000FDE                     postinc2        equ	4062
   104   000FEC                     preinc0         equ	4076
   105   000FE4                     preinc1         equ	4068
   106   000FDC                     preinc2         equ	4060
   107   000FF3                     prod            equ	4083
   108   000FF4                     prodh           equ	4084
   109   000FF3                     prodl           equ	4083
   110   000FD8                     status          equ	4056
   111   000FF5                     tablat          equ	4085
   112   000FF6                     tblptr          equ	4086
   113   000FF7                     tblptrh         equ	4087
   114   000FF6                     tblptrl         equ	4086
   115   000FF8                     tblptru         equ	4088
   116   000FFD                     tosl            equ	4093
   117   000FE8                     wreg            equ	4072
   118   000F80                     PORTA           equ	3968	;# 
   119   000F81                     PORTB           equ	3969	;# 
   120   000F82                     PORTC           equ	3970	;# 
   121   000F83                     PORTD           equ	3971	;# 
   122   000F84                     PORTE           equ	3972	;# 
   123   000F89                     LATA            equ	3977	;# 
   124   000F8A                     LATB            equ	3978	;# 
   125   000F8B                     LATC            equ	3979	;# 
   126   000F8C                     LATD            equ	3980	;# 
   127   000F8D                     LATE            equ	3981	;# 
   128   000F92                     TRISA           equ	3986	;# 
   129   000F92                     DDRA            equ	3986	;# 
   130   000F93                     TRISB           equ	3987	;# 
   131   000F93                     DDRB            equ	3987	;# 
   132   000F94                     TRISC           equ	3988	;# 
   133   000F94                     DDRC            equ	3988	;# 
   134   000F95                     TRISD           equ	3989	;# 
   135   000F95                     DDRD            equ	3989	;# 
   136   000F96                     TRISE           equ	3990	;# 
   137   000F96                     DDRE            equ	3990	;# 
   138   000F9B                     OSCTUNE         equ	3995	;# 
   139   000F9D                     PIE1            equ	3997	;# 
   140   000F9E                     PIR1            equ	3998	;# 
   141   000F9F                     IPR1            equ	3999	;# 
   142   000FA0                     PIE2            equ	4000	;# 
   143   000FA1                     PIR2            equ	4001	;# 
   144   000FA2                     IPR2            equ	4002	;# 
   145   000FA6                     EECON1          equ	4006	;# 
   146   000FA7                     EECON2          equ	4007	;# 
   147   000FA8                     EEDATA          equ	4008	;# 
   148   000FA9                     EEADR           equ	4009	;# 
   149   000FAB                     RCSTA           equ	4011	;# 
   150   000FAB                     RCSTA1          equ	4011	;# 
   151   000FAC                     TXSTA           equ	4012	;# 
   152   000FAC                     TXSTA1          equ	4012	;# 
   153   000FAD                     TXREG           equ	4013	;# 
   154   000FAD                     TXREG1          equ	4013	;# 
   155   000FAE                     RCREG           equ	4014	;# 
   156   000FAE                     RCREG1          equ	4014	;# 
   157   000FAF                     SPBRG           equ	4015	;# 
   158   000FAF                     SPBRG1          equ	4015	;# 
   159   000FB0                     SPBRGH          equ	4016	;# 
   160   000FB1                     T3CON           equ	4017	;# 
   161   000FB2                     TMR3            equ	4018	;# 
   162   000FB2                     TMR3L           equ	4018	;# 
   163   000FB3                     TMR3H           equ	4019	;# 
   164   000FB4                     CMCON           equ	4020	;# 
   165   000FB5                     CVRCON          equ	4021	;# 
   166   000FB6                     ECCP1AS         equ	4022	;# 
   167   000FB6                     ECCPAS          equ	4022	;# 
   168   000FB7                     PWM1CON         equ	4023	;# 
   169   000FB7                     ECCP1DEL        equ	4023	;# 
   170   000FB8                     BAUDCON         equ	4024	;# 
   171   000FB8                     BAUDCTL         equ	4024	;# 
   172   000FBA                     CCP2CON         equ	4026	;# 
   173   000FBB                     CCPR2           equ	4027	;# 
   174   000FBB                     CCPR2L          equ	4027	;# 
   175   000FBC                     CCPR2H          equ	4028	;# 
   176   000FBD                     CCP1CON         equ	4029	;# 
   177   000FBE                     CCPR1           equ	4030	;# 
   178   000FBE                     CCPR1L          equ	4030	;# 
   179   000FBF                     CCPR1H          equ	4031	;# 
   180   000FC0                     ADCON2          equ	4032	;# 
   181   000FC1                     ADCON1          equ	4033	;# 
   182   000FC2                     ADCON0          equ	4034	;# 
   183   000FC3                     ADRES           equ	4035	;# 
   184   000FC3                     ADRESL          equ	4035	;# 
   185   000FC4                     ADRESH          equ	4036	;# 
   186   000FC5                     SSPCON2         equ	4037	;# 
   187   000FC6                     SSPCON1         equ	4038	;# 
   188   000FC7                     SSPSTAT         equ	4039	;# 
   189   000FC8                     SSPADD          equ	4040	;# 
   190   000FC9                     SSPBUF          equ	4041	;# 
   191   000FCA                     T2CON           equ	4042	;# 
   192   000FCB                     PR2             equ	4043	;# 
   193   000FCB                     MEMCON          equ	4043	;# 
   194   000FCC                     TMR2            equ	4044	;# 
   195   000FCD                     T1CON           equ	4045	;# 
   196   000FCE                     TMR1            equ	4046	;# 
   197   000FCE                     TMR1L           equ	4046	;# 
   198   000FCF                     TMR1H           equ	4047	;# 
   199   000FD0                     RCON            equ	4048	;# 
   200   000FD1                     WDTCON          equ	4049	;# 
   201   000FD2                     HLVDCON         equ	4050	;# 
   202   000FD2                     LVDCON          equ	4050	;# 
   203   000FD3                     OSCCON          equ	4051	;# 
   204   000FD5                     T0CON           equ	4053	;# 
   205   000FD6                     TMR0            equ	4054	;# 
   206   000FD6                     TMR0L           equ	4054	;# 
   207   000FD7                     TMR0H           equ	4055	;# 
   208   000FD8                     STATUS          equ	4056	;# 
   209   000FD9                     FSR2            equ	4057	;# 
   210   000FD9                     FSR2L           equ	4057	;# 
   211   000FDA                     FSR2H           equ	4058	;# 
   212   000FDB                     PLUSW2          equ	4059	;# 
   213   000FDC                     PREINC2         equ	4060	;# 
   214   000FDD                     POSTDEC2        equ	4061	;# 
   215   000FDE                     POSTINC2        equ	4062	;# 
   216   000FDF                     INDF2           equ	4063	;# 
   217   000FE0                     BSR             equ	4064	;# 
   218   000FE1                     FSR1            equ	4065	;# 
   219   000FE1                     FSR1L           equ	4065	;# 
   220   000FE2                     FSR1H           equ	4066	;# 
   221   000FE3                     PLUSW1          equ	4067	;# 
   222   000FE4                     PREINC1         equ	4068	;# 
   223   000FE5                     POSTDEC1        equ	4069	;# 
   224   000FE6                     POSTINC1        equ	4070	;# 
   225   000FE7                     INDF1           equ	4071	;# 
   226   000FE8                     WREG            equ	4072	;# 
   227   000FE9                     FSR0            equ	4073	;# 
   228   000FE9                     FSR0L           equ	4073	;# 
   229   000FEA                     FSR0H           equ	4074	;# 
   230   000FEB                     PLUSW0          equ	4075	;# 
   231   000FEC                     PREINC0         equ	4076	;# 
   232   000FED                     POSTDEC0        equ	4077	;# 
   233   000FEE                     POSTINC0        equ	4078	;# 
   234   000FEF                     INDF0           equ	4079	;# 
   235   000FF0                     INTCON3         equ	4080	;# 
   236   000FF1                     INTCON2         equ	4081	;# 
   237   000FF2                     INTCON          equ	4082	;# 
   238   000FF3                     PROD            equ	4083	;# 
   239   000FF3                     PRODL           equ	4083	;# 
   240   000FF4                     PRODH           equ	4084	;# 
   241   000FF5                     TABLAT          equ	4085	;# 
   242   000FF6                     TBLPTR          equ	4086	;# 
   243   000FF6                     TBLPTRL         equ	4086	;# 
   244   000FF7                     TBLPTRH         equ	4087	;# 
   245   000FF8                     TBLPTRU         equ	4088	;# 
   246   000FF9                     PCLAT           equ	4089	;# 
   247   000FF9                     PC              equ	4089	;# 
   248   000FF9                     PCL             equ	4089	;# 
   249   000FFA                     PCLATH          equ	4090	;# 
   250   000FFB                     PCLATU          equ	4091	;# 
   251   000FFC                     STKPTR          equ	4092	;# 
   252   000FFD                     TOS             equ	4093	;# 
   253   000FFD                     TOSL            equ	4093	;# 
   254   000FFE                     TOSH            equ	4094	;# 
   255   000FFF                     TOSU            equ	4095	;# 
   256   000F80                     PORTA           equ	3968	;# 
   257   000F81                     PORTB           equ	3969	;# 
   258   000F82                     PORTC           equ	3970	;# 
   259   000F83                     PORTD           equ	3971	;# 
   260   000F84                     PORTE           equ	3972	;# 
   261   000F89                     LATA            equ	3977	;# 
   262   000F8A                     LATB            equ	3978	;# 
   263   000F8B                     LATC            equ	3979	;# 
   264   000F8C                     LATD            equ	3980	;# 
   265   000F8D                     LATE            equ	3981	;# 
   266   000F92                     TRISA           equ	3986	;# 
   267   000F92                     DDRA            equ	3986	;# 
   268   000F93                     TRISB           equ	3987	;# 
   269   000F93                     DDRB            equ	3987	;# 
   270   000F94                     TRISC           equ	3988	;# 
   271   000F94                     DDRC            equ	3988	;# 
   272   000F95                     TRISD           equ	3989	;# 
   273   000F95                     DDRD            equ	3989	;# 
   274   000F96                     TRISE           equ	3990	;# 
   275   000F96                     DDRE            equ	3990	;# 
   276   000F9B                     OSCTUNE         equ	3995	;# 
   277   000F9D                     PIE1            equ	3997	;# 
   278   000F9E                     PIR1            equ	3998	;# 
   279   000F9F                     IPR1            equ	3999	;# 
   280   000FA0                     PIE2            equ	4000	;# 
   281   000FA1                     PIR2            equ	4001	;# 
   282   000FA2                     IPR2            equ	4002	;# 
   283   000FA6                     EECON1          equ	4006	;# 
   284   000FA7                     EECON2          equ	4007	;# 
   285   000FA8                     EEDATA          equ	4008	;# 
   286   000FA9                     EEADR           equ	4009	;# 
   287   000FAB                     RCSTA           equ	4011	;# 
   288   000FAB                     RCSTA1          equ	4011	;# 
   289   000FAC                     TXSTA           equ	4012	;# 
   290   000FAC                     TXSTA1          equ	4012	;# 
   291   000FAD                     TXREG           equ	4013	;# 
   292   000FAD                     TXREG1          equ	4013	;# 
   293   000FAE                     RCREG           equ	4014	;# 
   294   000FAE                     RCREG1          equ	4014	;# 
   295   000FAF                     SPBRG           equ	4015	;# 
   296   000FAF                     SPBRG1          equ	4015	;# 
   297   000FB0                     SPBRGH          equ	4016	;# 
   298   000FB1                     T3CON           equ	4017	;# 
   299   000FB2                     TMR3            equ	4018	;# 
   300   000FB2                     TMR3L           equ	4018	;# 
   301   000FB3                     TMR3H           equ	4019	;# 
   302   000FB4                     CMCON           equ	4020	;# 
   303   000FB5                     CVRCON          equ	4021	;# 
   304   000FB6                     ECCP1AS         equ	4022	;# 
   305   000FB6                     ECCPAS          equ	4022	;# 
   306   000FB7                     PWM1CON         equ	4023	;# 
   307   000FB7                     ECCP1DEL        equ	4023	;# 
   308   000FB8                     BAUDCON         equ	4024	;# 
   309   000FB8                     BAUDCTL         equ	4024	;# 
   310   000FBA                     CCP2CON         equ	4026	;# 
   311   000FBB                     CCPR2           equ	4027	;# 
   312   000FBB                     CCPR2L          equ	4027	;# 
   313   000FBC                     CCPR2H          equ	4028	;# 
   314   000FBD                     CCP1CON         equ	4029	;# 
   315   000FBE                     CCPR1           equ	4030	;# 
   316   000FBE                     CCPR1L          equ	4030	;# 
   317   000FBF                     CCPR1H          equ	4031	;# 
   318   000FC0                     ADCON2          equ	4032	;# 
   319   000FC1                     ADCON1          equ	4033	;# 
   320   000FC2                     ADCON0          equ	4034	;# 
   321   000FC3                     ADRES           equ	4035	;# 
   322   000FC3                     ADRESL          equ	4035	;# 
   323   000FC4                     ADRESH          equ	4036	;# 
   324   000FC5                     SSPCON2         equ	4037	;# 
   325   000FC6                     SSPCON1         equ	4038	;# 
   326   000FC7                     SSPSTAT         equ	4039	;# 
   327   000FC8                     SSPADD          equ	4040	;# 
   328   000FC9                     SSPBUF          equ	4041	;# 
   329   000FCA                     T2CON           equ	4042	;# 
   330   000FCB                     PR2             equ	4043	;# 
   331   000FCB                     MEMCON          equ	4043	;# 
   332   000FCC                     TMR2            equ	4044	;# 
   333   000FCD                     T1CON           equ	4045	;# 
   334   000FCE                     TMR1            equ	4046	;# 
   335   000FCE                     TMR1L           equ	4046	;# 
   336   000FCF                     TMR1H           equ	4047	;# 
   337   000FD0                     RCON            equ	4048	;# 
   338   000FD1                     WDTCON          equ	4049	;# 
   339   000FD2                     HLVDCON         equ	4050	;# 
   340   000FD2                     LVDCON          equ	4050	;# 
   341   000FD3                     OSCCON          equ	4051	;# 
   342   000FD5                     T0CON           equ	4053	;# 
   343   000FD6                     TMR0            equ	4054	;# 
   344   000FD6                     TMR0L           equ	4054	;# 
   345   000FD7                     TMR0H           equ	4055	;# 
   346   000FD8                     STATUS          equ	4056	;# 
   347   000FD9                     FSR2            equ	4057	;# 
   348   000FD9                     FSR2L           equ	4057	;# 
   349   000FDA                     FSR2H           equ	4058	;# 
   350   000FDB                     PLUSW2          equ	4059	;# 
   351   000FDC                     PREINC2         equ	4060	;# 
   352   000FDD                     POSTDEC2        equ	4061	;# 
   353   000FDE                     POSTINC2        equ	4062	;# 
   354   000FDF                     INDF2           equ	4063	;# 
   355   000FE0                     BSR             equ	4064	;# 
   356   000FE1                     FSR1            equ	4065	;# 
   357   000FE1                     FSR1L           equ	4065	;# 
   358   000FE2                     FSR1H           equ	4066	;# 
   359   000FE3                     PLUSW1          equ	4067	;# 
   360   000FE4                     PREINC1         equ	4068	;# 
   361   000FE5                     POSTDEC1        equ	4069	;# 
   362   000FE6                     POSTINC1        equ	4070	;# 
   363   000FE7                     INDF1           equ	4071	;# 
   364   000FE8                     WREG            equ	4072	;# 
   365   000FE9                     FSR0            equ	4073	;# 
   366   000FE9                     FSR0L           equ	4073	;# 
   367   000FEA                     FSR0H           equ	4074	;# 
   368   000FEB                     PLUSW0          equ	4075	;# 
   369   000FEC                     PREINC0         equ	4076	;# 
   370   000FED                     POSTDEC0        equ	4077	;# 
   371   000FEE                     POSTINC0        equ	4078	;# 
   372   000FEF                     INDF0           equ	4079	;# 
   373   000FF0                     INTCON3         equ	4080	;# 
   374   000FF1                     INTCON2         equ	4081	;# 
   375   000FF2                     INTCON          equ	4082	;# 
   376   000FF3                     PROD            equ	4083	;# 
   377   000FF3                     PRODL           equ	4083	;# 
   378   000FF4                     PRODH           equ	4084	;# 
   379   000FF5                     TABLAT          equ	4085	;# 
   380   000FF6                     TBLPTR          equ	4086	;# 
   381   000FF6                     TBLPTRL         equ	4086	;# 
   382   000FF7                     TBLPTRH         equ	4087	;# 
   383   000FF8                     TBLPTRU         equ	4088	;# 
   384   000FF9                     PCLAT           equ	4089	;# 
   385   000FF9                     PC              equ	4089	;# 
   386   000FF9                     PCL             equ	4089	;# 
   387   000FFA                     PCLATH          equ	4090	;# 
   388   000FFB                     PCLATU          equ	4091	;# 
   389   000FFC                     STKPTR          equ	4092	;# 
   390   000FFD                     TOS             equ	4093	;# 
   391   000FFD                     TOSL            equ	4093	;# 
   392   000FFE                     TOSH            equ	4094	;# 
   393   000FFF                     TOSU            equ	4095	;# 
   394   000F80                     PORTA           equ	3968	;# 
   395   000F81                     PORTB           equ	3969	;# 
   396   000F82                     PORTC           equ	3970	;# 
   397   000F83                     PORTD           equ	3971	;# 
   398   000F84                     PORTE           equ	3972	;# 
   399   000F89                     LATA            equ	3977	;# 
   400   000F8A                     LATB            equ	3978	;# 
   401   000F8B                     LATC            equ	3979	;# 
   402   000F8C                     LATD            equ	3980	;# 
   403   000F8D                     LATE            equ	3981	;# 
   404   000F92                     TRISA           equ	3986	;# 
   405   000F92                     DDRA            equ	3986	;# 
   406   000F93                     TRISB           equ	3987	;# 
   407   000F93                     DDRB            equ	3987	;# 
   408   000F94                     TRISC           equ	3988	;# 
   409   000F94                     DDRC            equ	3988	;# 
   410   000F95                     TRISD           equ	3989	;# 
   411   000F95                     DDRD            equ	3989	;# 
   412   000F96                     TRISE           equ	3990	;# 
   413   000F96                     DDRE            equ	3990	;# 
   414   000F9B                     OSCTUNE         equ	3995	;# 
   415   000F9D                     PIE1            equ	3997	;# 
   416   000F9E                     PIR1            equ	3998	;# 
   417   000F9F                     IPR1            equ	3999	;# 
   418   000FA0                     PIE2            equ	4000	;# 
   419   000FA1                     PIR2            equ	4001	;# 
   420   000FA2                     IPR2            equ	4002	;# 
   421   000FA6                     EECON1          equ	4006	;# 
   422   000FA7                     EECON2          equ	4007	;# 
   423   000FA8                     EEDATA          equ	4008	;# 
   424   000FA9                     EEADR           equ	4009	;# 
   425   000FAB                     RCSTA           equ	4011	;# 
   426   000FAB                     RCSTA1          equ	4011	;# 
   427   000FAC                     TXSTA           equ	4012	;# 
   428   000FAC                     TXSTA1          equ	4012	;# 
   429   000FAD                     TXREG           equ	4013	;# 
   430   000FAD                     TXREG1          equ	4013	;# 
   431   000FAE                     RCREG           equ	4014	;# 
   432   000FAE                     RCREG1          equ	4014	;# 
   433   000FAF                     SPBRG           equ	4015	;# 
   434   000FAF                     SPBRG1          equ	4015	;# 
   435   000FB0                     SPBRGH          equ	4016	;# 
   436   000FB1                     T3CON           equ	4017	;# 
   437   000FB2                     TMR3            equ	4018	;# 
   438   000FB2                     TMR3L           equ	4018	;# 
   439   000FB3                     TMR3H           equ	4019	;# 
   440   000FB4                     CMCON           equ	4020	;# 
   441   000FB5                     CVRCON          equ	4021	;# 
   442   000FB6                     ECCP1AS         equ	4022	;# 
   443   000FB6                     ECCPAS          equ	4022	;# 
   444   000FB7                     PWM1CON         equ	4023	;# 
   445   000FB7                     ECCP1DEL        equ	4023	;# 
   446   000FB8                     BAUDCON         equ	4024	;# 
   447   000FB8                     BAUDCTL         equ	4024	;# 
   448   000FBA                     CCP2CON         equ	4026	;# 
   449   000FBB                     CCPR2           equ	4027	;# 
   450   000FBB                     CCPR2L          equ	4027	;# 
   451   000FBC                     CCPR2H          equ	4028	;# 
   452   000FBD                     CCP1CON         equ	4029	;# 
   453   000FBE                     CCPR1           equ	4030	;# 
   454   000FBE                     CCPR1L          equ	4030	;# 
   455   000FBF                     CCPR1H          equ	4031	;# 
   456   000FC0                     ADCON2          equ	4032	;# 
   457   000FC1                     ADCON1          equ	4033	;# 
   458   000FC2                     ADCON0          equ	4034	;# 
   459   000FC3                     ADRES           equ	4035	;# 
   460   000FC3                     ADRESL          equ	4035	;# 
   461   000FC4                     ADRESH          equ	4036	;# 
   462   000FC5                     SSPCON2         equ	4037	;# 
   463   000FC6                     SSPCON1         equ	4038	;# 
   464   000FC7                     SSPSTAT         equ	4039	;# 
   465   000FC8                     SSPADD          equ	4040	;# 
   466   000FC9                     SSPBUF          equ	4041	;# 
   467   000FCA                     T2CON           equ	4042	;# 
   468   000FCB                     PR2             equ	4043	;# 
   469   000FCB                     MEMCON          equ	4043	;# 
   470   000FCC                     TMR2            equ	4044	;# 
   471   000FCD                     T1CON           equ	4045	;# 
   472   000FCE                     TMR1            equ	4046	;# 
   473   000FCE                     TMR1L           equ	4046	;# 
   474   000FCF                     TMR1H           equ	4047	;# 
   475   000FD0                     RCON            equ	4048	;# 
   476   000FD1                     WDTCON          equ	4049	;# 
   477   000FD2                     HLVDCON         equ	4050	;# 
   478   000FD2                     LVDCON          equ	4050	;# 
   479   000FD3                     OSCCON          equ	4051	;# 
   480   000FD5                     T0CON           equ	4053	;# 
   481   000FD6                     TMR0            equ	4054	;# 
   482   000FD6                     TMR0L           equ	4054	;# 
   483   000FD7                     TMR0H           equ	4055	;# 
   484   000FD8                     STATUS          equ	4056	;# 
   485   000FD9                     FSR2            equ	4057	;# 
   486   000FD9                     FSR2L           equ	4057	;# 
   487   000FDA                     FSR2H           equ	4058	;# 
   488   000FDB                     PLUSW2          equ	4059	;# 
   489   000FDC                     PREINC2         equ	4060	;# 
   490   000FDD                     POSTDEC2        equ	4061	;# 
   491   000FDE                     POSTINC2        equ	4062	;# 
   492   000FDF                     INDF2           equ	4063	;# 
   493   000FE0                     BSR             equ	4064	;# 
   494   000FE1                     FSR1            equ	4065	;# 
   495   000FE1                     FSR1L           equ	4065	;# 
   496   000FE2                     FSR1H           equ	4066	;# 
   497   000FE3                     PLUSW1          equ	4067	;# 
   498   000FE4                     PREINC1         equ	4068	;# 
   499   000FE5                     POSTDEC1        equ	4069	;# 
   500   000FE6                     POSTINC1        equ	4070	;# 
   501   000FE7                     INDF1           equ	4071	;# 
   502   000FE8                     WREG            equ	4072	;# 
   503   000FE9                     FSR0            equ	4073	;# 
   504   000FE9                     FSR0L           equ	4073	;# 
   505   000FEA                     FSR0H           equ	4074	;# 
   506   000FEB                     PLUSW0          equ	4075	;# 
   507   000FEC                     PREINC0         equ	4076	;# 
   508   000FED                     POSTDEC0        equ	4077	;# 
   509   000FEE                     POSTINC0        equ	4078	;# 
   510   000FEF                     INDF0           equ	4079	;# 
   511   000FF0                     INTCON3         equ	4080	;# 
   512   000FF1                     INTCON2         equ	4081	;# 
   513   000FF2                     INTCON          equ	4082	;# 
   514   000FF3                     PROD            equ	4083	;# 
   515   000FF3                     PRODL           equ	4083	;# 
   516   000FF4                     PRODH           equ	4084	;# 
   517   000FF5                     TABLAT          equ	4085	;# 
   518   000FF6                     TBLPTR          equ	4086	;# 
   519   000FF6                     TBLPTRL         equ	4086	;# 
   520   000FF7                     TBLPTRH         equ	4087	;# 
   521   000FF8                     TBLPTRU         equ	4088	;# 
   522   000FF9                     PCLAT           equ	4089	;# 
   523   000FF9                     PC              equ	4089	;# 
   524   000FF9                     PCL             equ	4089	;# 
   525   000FFA                     PCLATH          equ	4090	;# 
   526   000FFB                     PCLATU          equ	4091	;# 
   527   000FFC                     STKPTR          equ	4092	;# 
   528   000FFD                     TOS             equ	4093	;# 
   529   000FFD                     TOSL            equ	4093	;# 
   530   000FFE                     TOSH            equ	4094	;# 
   531   000FFF                     TOSU            equ	4095	;# 
   532   000F80                     PORTA           equ	3968	;# 
   533   000F81                     PORTB           equ	3969	;# 
   534   000F82                     PORTC           equ	3970	;# 
   535   000F83                     PORTD           equ	3971	;# 
   536   000F84                     PORTE           equ	3972	;# 
   537   000F89                     LATA            equ	3977	;# 
   538   000F8A                     LATB            equ	3978	;# 
   539   000F8B                     LATC            equ	3979	;# 
   540   000F8C                     LATD            equ	3980	;# 
   541   000F8D                     LATE            equ	3981	;# 
   542   000F92                     TRISA           equ	3986	;# 
   543   000F92                     DDRA            equ	3986	;# 
   544   000F93                     TRISB           equ	3987	;# 
   545   000F93                     DDRB            equ	3987	;# 
   546   000F94                     TRISC           equ	3988	;# 
   547   000F94                     DDRC            equ	3988	;# 
   548   000F95                     TRISD           equ	3989	;# 
   549   000F95                     DDRD            equ	3989	;# 
   550   000F96                     TRISE           equ	3990	;# 
   551   000F96                     DDRE            equ	3990	;# 
   552   000F9B                     OSCTUNE         equ	3995	;# 
   553   000F9D                     PIE1            equ	3997	;# 
   554   000F9E                     PIR1            equ	3998	;# 
   555   000F9F                     IPR1            equ	3999	;# 
   556   000FA0                     PIE2            equ	4000	;# 
   557   000FA1                     PIR2            equ	4001	;# 
   558   000FA2                     IPR2            equ	4002	;# 
   559   000FA6                     EECON1          equ	4006	;# 
   560   000FA7                     EECON2          equ	4007	;# 
   561   000FA8                     EEDATA          equ	4008	;# 
   562   000FA9                     EEADR           equ	4009	;# 
   563   000FAB                     RCSTA           equ	4011	;# 
   564   000FAB                     RCSTA1          equ	4011	;# 
   565   000FAC                     TXSTA           equ	4012	;# 
   566   000FAC                     TXSTA1          equ	4012	;# 
   567   000FAD                     TXREG           equ	4013	;# 
   568   000FAD                     TXREG1          equ	4013	;# 
   569   000FAE                     RCREG           equ	4014	;# 
   570   000FAE                     RCREG1          equ	4014	;# 
   571   000FAF                     SPBRG           equ	4015	;# 
   572   000FAF                     SPBRG1          equ	4015	;# 
   573   000FB0                     SPBRGH          equ	4016	;# 
   574   000FB1                     T3CON           equ	4017	;# 
   575   000FB2                     TMR3            equ	4018	;# 
   576   000FB2                     TMR3L           equ	4018	;# 
   577   000FB3                     TMR3H           equ	4019	;# 
   578   000FB4                     CMCON           equ	4020	;# 
   579   000FB5                     CVRCON          equ	4021	;# 
   580   000FB6                     ECCP1AS         equ	4022	;# 
   581   000FB6                     ECCPAS          equ	4022	;# 
   582   000FB7                     PWM1CON         equ	4023	;# 
   583   000FB7                     ECCP1DEL        equ	4023	;# 
   584   000FB8                     BAUDCON         equ	4024	;# 
   585   000FB8                     BAUDCTL         equ	4024	;# 
   586   000FBA                     CCP2CON         equ	4026	;# 
   587   000FBB                     CCPR2           equ	4027	;# 
   588   000FBB                     CCPR2L          equ	4027	;# 
   589   000FBC                     CCPR2H          equ	4028	;# 
   590   000FBD                     CCP1CON         equ	4029	;# 
   591   000FBE                     CCPR1           equ	4030	;# 
   592   000FBE                     CCPR1L          equ	4030	;# 
   593   000FBF                     CCPR1H          equ	4031	;# 
   594   000FC0                     ADCON2          equ	4032	;# 
   595   000FC1                     ADCON1          equ	4033	;# 
   596   000FC2                     ADCON0          equ	4034	;# 
   597   000FC3                     ADRES           equ	4035	;# 
   598   000FC3                     ADRESL          equ	4035	;# 
   599   000FC4                     ADRESH          equ	4036	;# 
   600   000FC5                     SSPCON2         equ	4037	;# 
   601   000FC6                     SSPCON1         equ	4038	;# 
   602   000FC7                     SSPSTAT         equ	4039	;# 
   603   000FC8                     SSPADD          equ	4040	;# 
   604   000FC9                     SSPBUF          equ	4041	;# 
   605   000FCA                     T2CON           equ	4042	;# 
   606   000FCB                     PR2             equ	4043	;# 
   607   000FCB                     MEMCON          equ	4043	;# 
   608   000FCC                     TMR2            equ	4044	;# 
   609   000FCD                     T1CON           equ	4045	;# 
   610   000FCE                     TMR1            equ	4046	;# 
   611   000FCE                     TMR1L           equ	4046	;# 
   612   000FCF                     TMR1H           equ	4047	;# 
   613   000FD0                     RCON            equ	4048	;# 
   614   000FD1                     WDTCON          equ	4049	;# 
   615   000FD2                     HLVDCON         equ	4050	;# 
   616   000FD2                     LVDCON          equ	4050	;# 
   617   000FD3                     OSCCON          equ	4051	;# 
   618   000FD5                     T0CON           equ	4053	;# 
   619   000FD6                     TMR0            equ	4054	;# 
   620   000FD6                     TMR0L           equ	4054	;# 
   621   000FD7                     TMR0H           equ	4055	;# 
   622   000FD8                     STATUS          equ	4056	;# 
   623   000FD9                     FSR2            equ	4057	;# 
   624   000FD9                     FSR2L           equ	4057	;# 
   625   000FDA                     FSR2H           equ	4058	;# 
   626   000FDB                     PLUSW2          equ	4059	;# 
   627   000FDC                     PREINC2         equ	4060	;# 
   628   000FDD                     POSTDEC2        equ	4061	;# 
   629   000FDE                     POSTINC2        equ	4062	;# 
   630   000FDF                     INDF2           equ	4063	;# 
   631   000FE0                     BSR             equ	4064	;# 
   632   000FE1                     FSR1            equ	4065	;# 
   633   000FE1                     FSR1L           equ	4065	;# 
   634   000FE2                     FSR1H           equ	4066	;# 
   635   000FE3                     PLUSW1          equ	4067	;# 
   636   000FE4                     PREINC1         equ	4068	;# 
   637   000FE5                     POSTDEC1        equ	4069	;# 
   638   000FE6                     POSTINC1        equ	4070	;# 
   639   000FE7                     INDF1           equ	4071	;# 
   640   000FE8                     WREG            equ	4072	;# 
   641   000FE9                     FSR0            equ	4073	;# 
   642   000FE9                     FSR0L           equ	4073	;# 
   643   000FEA                     FSR0H           equ	4074	;# 
   644   000FEB                     PLUSW0          equ	4075	;# 
   645   000FEC                     PREINC0         equ	4076	;# 
   646   000FED                     POSTDEC0        equ	4077	;# 
   647   000FEE                     POSTINC0        equ	4078	;# 
   648   000FEF                     INDF0           equ	4079	;# 
   649   000FF0                     INTCON3         equ	4080	;# 
   650   000FF1                     INTCON2         equ	4081	;# 
   651   000FF2                     INTCON          equ	4082	;# 
   652   000FF3                     PROD            equ	4083	;# 
   653   000FF3                     PRODL           equ	4083	;# 
   654   000FF4                     PRODH           equ	4084	;# 
   655   000FF5                     TABLAT          equ	4085	;# 
   656   000FF6                     TBLPTR          equ	4086	;# 
   657   000FF6                     TBLPTRL         equ	4086	;# 
   658   000FF7                     TBLPTRH         equ	4087	;# 
   659   000FF8                     TBLPTRU         equ	4088	;# 
   660   000FF9                     PCLAT           equ	4089	;# 
   661   000FF9                     PC              equ	4089	;# 
   662   000FF9                     PCL             equ	4089	;# 
   663   000FFA                     PCLATH          equ	4090	;# 
   664   000FFB                     PCLATU          equ	4091	;# 
   665   000FFC                     STKPTR          equ	4092	;# 
   666   000FFD                     TOS             equ	4093	;# 
   667   000FFD                     TOSL            equ	4093	;# 
   668   000FFE                     TOSH            equ	4094	;# 
   669   000FFF                     TOSU            equ	4095	;# 
   670   000F80                     PORTA           equ	3968	;# 
   671   000F81                     PORTB           equ	3969	;# 
   672   000F82                     PORTC           equ	3970	;# 
   673   000F83                     PORTD           equ	3971	;# 
   674   000F84                     PORTE           equ	3972	;# 
   675   000F89                     LATA            equ	3977	;# 
   676   000F8A                     LATB            equ	3978	;# 
   677   000F8B                     LATC            equ	3979	;# 
   678   000F8C                     LATD            equ	3980	;# 
   679   000F8D                     LATE            equ	3981	;# 
   680   000F92                     TRISA           equ	3986	;# 
   681   000F92                     DDRA            equ	3986	;# 
   682   000F93                     TRISB           equ	3987	;# 
   683   000F93                     DDRB            equ	3987	;# 
   684   000F94                     TRISC           equ	3988	;# 
   685   000F94                     DDRC            equ	3988	;# 
   686   000F95                     TRISD           equ	3989	;# 
   687   000F95                     DDRD            equ	3989	;# 
   688   000F96                     TRISE           equ	3990	;# 
   689   000F96                     DDRE            equ	3990	;# 
   690   000F9B                     OSCTUNE         equ	3995	;# 
   691   000F9D                     PIE1            equ	3997	;# 
   692   000F9E                     PIR1            equ	3998	;# 
   693   000F9F                     IPR1            equ	3999	;# 
   694   000FA0                     PIE2            equ	4000	;# 
   695   000FA1                     PIR2            equ	4001	;# 
   696   000FA2                     IPR2            equ	4002	;# 
   697   000FA6                     EECON1          equ	4006	;# 
   698   000FA7                     EECON2          equ	4007	;# 
   699   000FA8                     EEDATA          equ	4008	;# 
   700   000FA9                     EEADR           equ	4009	;# 
   701   000FAB                     RCSTA           equ	4011	;# 
   702   000FAB                     RCSTA1          equ	4011	;# 
   703   000FAC                     TXSTA           equ	4012	;# 
   704   000FAC                     TXSTA1          equ	4012	;# 
   705   000FAD                     TXREG           equ	4013	;# 
   706   000FAD                     TXREG1          equ	4013	;# 
   707   000FAE                     RCREG           equ	4014	;# 
   708   000FAE                     RCREG1          equ	4014	;# 
   709   000FAF                     SPBRG           equ	4015	;# 
   710   000FAF                     SPBRG1          equ	4015	;# 
   711   000FB0                     SPBRGH          equ	4016	;# 
   712   000FB1                     T3CON           equ	4017	;# 
   713   000FB2                     TMR3            equ	4018	;# 
   714   000FB2                     TMR3L           equ	4018	;# 
   715   000FB3                     TMR3H           equ	4019	;# 
   716   000FB4                     CMCON           equ	4020	;# 
   717   000FB5                     CVRCON          equ	4021	;# 
   718   000FB6                     ECCP1AS         equ	4022	;# 
   719   000FB6                     ECCPAS          equ	4022	;# 
   720   000FB7                     PWM1CON         equ	4023	;# 
   721   000FB7                     ECCP1DEL        equ	4023	;# 
   722   000FB8                     BAUDCON         equ	4024	;# 
   723   000FB8                     BAUDCTL         equ	4024	;# 
   724   000FBA                     CCP2CON         equ	4026	;# 
   725   000FBB                     CCPR2           equ	4027	;# 
   726   000FBB                     CCPR2L          equ	4027	;# 
   727   000FBC                     CCPR2H          equ	4028	;# 
   728   000FBD                     CCP1CON         equ	4029	;# 
   729   000FBE                     CCPR1           equ	4030	;# 
   730   000FBE                     CCPR1L          equ	4030	;# 
   731   000FBF                     CCPR1H          equ	4031	;# 
   732   000FC0                     ADCON2          equ	4032	;# 
   733   000FC1                     ADCON1          equ	4033	;# 
   734   000FC2                     ADCON0          equ	4034	;# 
   735   000FC3                     ADRES           equ	4035	;# 
   736   000FC3                     ADRESL          equ	4035	;# 
   737   000FC4                     ADRESH          equ	4036	;# 
   738   000FC5                     SSPCON2         equ	4037	;# 
   739   000FC6                     SSPCON1         equ	4038	;# 
   740   000FC7                     SSPSTAT         equ	4039	;# 
   741   000FC8                     SSPADD          equ	4040	;# 
   742   000FC9                     SSPBUF          equ	4041	;# 
   743   000FCA                     T2CON           equ	4042	;# 
   744   000FCB                     PR2             equ	4043	;# 
   745   000FCB                     MEMCON          equ	4043	;# 
   746   000FCC                     TMR2            equ	4044	;# 
   747   000FCD                     T1CON           equ	4045	;# 
   748   000FCE                     TMR1            equ	4046	;# 
   749   000FCE                     TMR1L           equ	4046	;# 
   750   000FCF                     TMR1H           equ	4047	;# 
   751   000FD0                     RCON            equ	4048	;# 
   752   000FD1                     WDTCON          equ	4049	;# 
   753   000FD2                     HLVDCON         equ	4050	;# 
   754   000FD2                     LVDCON          equ	4050	;# 
   755   000FD3                     OSCCON          equ	4051	;# 
   756   000FD5                     T0CON           equ	4053	;# 
   757   000FD6                     TMR0            equ	4054	;# 
   758   000FD6                     TMR0L           equ	4054	;# 
   759   000FD7                     TMR0H           equ	4055	;# 
   760   000FD8                     STATUS          equ	4056	;# 
   761   000FD9                     FSR2            equ	4057	;# 
   762   000FD9                     FSR2L           equ	4057	;# 
   763   000FDA                     FSR2H           equ	4058	;# 
   764   000FDB                     PLUSW2          equ	4059	;# 
   765   000FDC                     PREINC2         equ	4060	;# 
   766   000FDD                     POSTDEC2        equ	4061	;# 
   767   000FDE                     POSTINC2        equ	4062	;# 
   768   000FDF                     INDF2           equ	4063	;# 
   769   000FE0                     BSR             equ	4064	;# 
   770   000FE1                     FSR1            equ	4065	;# 
   771   000FE1                     FSR1L           equ	4065	;# 
   772   000FE2                     FSR1H           equ	4066	;# 
   773   000FE3                     PLUSW1          equ	4067	;# 
   774   000FE4                     PREINC1         equ	4068	;# 
   775   000FE5                     POSTDEC1        equ	4069	;# 
   776   000FE6                     POSTINC1        equ	4070	;# 
   777   000FE7                     INDF1           equ	4071	;# 
   778   000FE8                     WREG            equ	4072	;# 
   779   000FE9                     FSR0            equ	4073	;# 
   780   000FE9                     FSR0L           equ	4073	;# 
   781   000FEA                     FSR0H           equ	4074	;# 
   782   000FEB                     PLUSW0          equ	4075	;# 
   783   000FEC                     PREINC0         equ	4076	;# 
   784   000FED                     POSTDEC0        equ	4077	;# 
   785   000FEE                     POSTINC0        equ	4078	;# 
   786   000FEF                     INDF0           equ	4079	;# 
   787   000FF0                     INTCON3         equ	4080	;# 
   788   000FF1                     INTCON2         equ	4081	;# 
   789   000FF2                     INTCON          equ	4082	;# 
   790   000FF3                     PROD            equ	4083	;# 
   791   000FF3                     PRODL           equ	4083	;# 
   792   000FF4                     PRODH           equ	4084	;# 
   793   000FF5                     TABLAT          equ	4085	;# 
   794   000FF6                     TBLPTR          equ	4086	;# 
   795   000FF6                     TBLPTRL         equ	4086	;# 
   796   000FF7                     TBLPTRH         equ	4087	;# 
   797   000FF8                     TBLPTRU         equ	4088	;# 
   798   000FF9                     PCLAT           equ	4089	;# 
   799   000FF9                     PC              equ	4089	;# 
   800   000FF9                     PCL             equ	4089	;# 
   801   000FFA                     PCLATH          equ	4090	;# 
   802   000FFB                     PCLATU          equ	4091	;# 
   803   000FFC                     STKPTR          equ	4092	;# 
   804   000FFD                     TOS             equ	4093	;# 
   805   000FFD                     TOSL            equ	4093	;# 
   806   000FFE                     TOSH            equ	4094	;# 
   807   000FFF                     TOSU            equ	4095	;# 
   808   000F80                     PORTA           equ	3968	;# 
   809   000F81                     PORTB           equ	3969	;# 
   810   000F82                     PORTC           equ	3970	;# 
   811   000F83                     PORTD           equ	3971	;# 
   812   000F84                     PORTE           equ	3972	;# 
   813   000F89                     LATA            equ	3977	;# 
   814   000F8A                     LATB            equ	3978	;# 
   815   000F8B                     LATC            equ	3979	;# 
   816   000F8C                     LATD            equ	3980	;# 
   817   000F8D                     LATE            equ	3981	;# 
   818   000F92                     TRISA           equ	3986	;# 
   819   000F92                     DDRA            equ	3986	;# 
   820   000F93                     TRISB           equ	3987	;# 
   821   000F93                     DDRB            equ	3987	;# 
   822   000F94                     TRISC           equ	3988	;# 
   823   000F94                     DDRC            equ	3988	;# 
   824   000F95                     TRISD           equ	3989	;# 
   825   000F95                     DDRD            equ	3989	;# 
   826   000F96                     TRISE           equ	3990	;# 
   827   000F96                     DDRE            equ	3990	;# 
   828   000F9B                     OSCTUNE         equ	3995	;# 
   829   000F9D                     PIE1            equ	3997	;# 
   830   000F9E                     PIR1            equ	3998	;# 
   831   000F9F                     IPR1            equ	3999	;# 
   832   000FA0                     PIE2            equ	4000	;# 
   833   000FA1                     PIR2            equ	4001	;# 
   834   000FA2                     IPR2            equ	4002	;# 
   835   000FA6                     EECON1          equ	4006	;# 
   836   000FA7                     EECON2          equ	4007	;# 
   837   000FA8                     EEDATA          equ	4008	;# 
   838   000FA9                     EEADR           equ	4009	;# 
   839   000FAB                     RCSTA           equ	4011	;# 
   840   000FAB                     RCSTA1          equ	4011	;# 
   841   000FAC                     TXSTA           equ	4012	;# 
   842   000FAC                     TXSTA1          equ	4012	;# 
   843   000FAD                     TXREG           equ	4013	;# 
   844   000FAD                     TXREG1          equ	4013	;# 
   845   000FAE                     RCREG           equ	4014	;# 
   846   000FAE                     RCREG1          equ	4014	;# 
   847   000FAF                     SPBRG           equ	4015	;# 
   848   000FAF                     SPBRG1          equ	4015	;# 
   849   000FB0                     SPBRGH          equ	4016	;# 
   850   000FB1                     T3CON           equ	4017	;# 
   851   000FB2                     TMR3            equ	4018	;# 
   852   000FB2                     TMR3L           equ	4018	;# 
   853   000FB3                     TMR3H           equ	4019	;# 
   854   000FB4                     CMCON           equ	4020	;# 
   855   000FB5                     CVRCON          equ	4021	;# 
   856   000FB6                     ECCP1AS         equ	4022	;# 
   857   000FB6                     ECCPAS          equ	4022	;# 
   858   000FB7                     PWM1CON         equ	4023	;# 
   859   000FB7                     ECCP1DEL        equ	4023	;# 
   860   000FB8                     BAUDCON         equ	4024	;# 
   861   000FB8                     BAUDCTL         equ	4024	;# 
   862   000FBA                     CCP2CON         equ	4026	;# 
   863   000FBB                     CCPR2           equ	4027	;# 
   864   000FBB                     CCPR2L          equ	4027	;# 
   865   000FBC                     CCPR2H          equ	4028	;# 
   866   000FBD                     CCP1CON         equ	4029	;# 
   867   000FBE                     CCPR1           equ	4030	;# 
   868   000FBE                     CCPR1L          equ	4030	;# 
   869   000FBF                     CCPR1H          equ	4031	;# 
   870   000FC0                     ADCON2          equ	4032	;# 
   871   000FC1                     ADCON1          equ	4033	;# 
   872   000FC2                     ADCON0          equ	4034	;# 
   873   000FC3                     ADRES           equ	4035	;# 
   874   000FC3                     ADRESL          equ	4035	;# 
   875   000FC4                     ADRESH          equ	4036	;# 
   876   000FC5                     SSPCON2         equ	4037	;# 
   877   000FC6                     SSPCON1         equ	4038	;# 
   878   000FC7                     SSPSTAT         equ	4039	;# 
   879   000FC8                     SSPADD          equ	4040	;# 
   880   000FC9                     SSPBUF          equ	4041	;# 
   881   000FCA                     T2CON           equ	4042	;# 
   882   000FCB                     PR2             equ	4043	;# 
   883   000FCB                     MEMCON          equ	4043	;# 
   884   000FCC                     TMR2            equ	4044	;# 
   885   000FCD                     T1CON           equ	4045	;# 
   886   000FCE                     TMR1            equ	4046	;# 
   887   000FCE                     TMR1L           equ	4046	;# 
   888   000FCF                     TMR1H           equ	4047	;# 
   889   000FD0                     RCON            equ	4048	;# 
   890   000FD1                     WDTCON          equ	4049	;# 
   891   000FD2                     HLVDCON         equ	4050	;# 
   892   000FD2                     LVDCON          equ	4050	;# 
   893   000FD3                     OSCCON          equ	4051	;# 
   894   000FD5                     T0CON           equ	4053	;# 
   895   000FD6                     TMR0            equ	4054	;# 
   896   000FD6                     TMR0L           equ	4054	;# 
   897   000FD7                     TMR0H           equ	4055	;# 
   898   000FD8                     STATUS          equ	4056	;# 
   899   000FD9                     FSR2            equ	4057	;# 
   900   000FD9                     FSR2L           equ	4057	;# 
   901   000FDA                     FSR2H           equ	4058	;# 
   902   000FDB                     PLUSW2          equ	4059	;# 
   903   000FDC                     PREINC2         equ	4060	;# 
   904   000FDD                     POSTDEC2        equ	4061	;# 
   905   000FDE                     POSTINC2        equ	4062	;# 
   906   000FDF                     INDF2           equ	4063	;# 
   907   000FE0                     BSR             equ	4064	;# 
   908   000FE1                     FSR1            equ	4065	;# 
   909   000FE1                     FSR1L           equ	4065	;# 
   910   000FE2                     FSR1H           equ	4066	;# 
   911   000FE3                     PLUSW1          equ	4067	;# 
   912   000FE4                     PREINC1         equ	4068	;# 
   913   000FE5                     POSTDEC1        equ	4069	;# 
   914   000FE6                     POSTINC1        equ	4070	;# 
   915   000FE7                     INDF1           equ	4071	;# 
   916   000FE8                     WREG            equ	4072	;# 
   917   000FE9                     FSR0            equ	4073	;# 
   918   000FE9                     FSR0L           equ	4073	;# 
   919   000FEA                     FSR0H           equ	4074	;# 
   920   000FEB                     PLUSW0          equ	4075	;# 
   921   000FEC                     PREINC0         equ	4076	;# 
   922   000FED                     POSTDEC0        equ	4077	;# 
   923   000FEE                     POSTINC0        equ	4078	;# 
   924   000FEF                     INDF0           equ	4079	;# 
   925   000FF0                     INTCON3         equ	4080	;# 
   926   000FF1                     INTCON2         equ	4081	;# 
   927   000FF2                     INTCON          equ	4082	;# 
   928   000FF3                     PROD            equ	4083	;# 
   929   000FF3                     PRODL           equ	4083	;# 
   930   000FF4                     PRODH           equ	4084	;# 
   931   000FF5                     TABLAT          equ	4085	;# 
   932   000FF6                     TBLPTR          equ	4086	;# 
   933   000FF6                     TBLPTRL         equ	4086	;# 
   934   000FF7                     TBLPTRH         equ	4087	;# 
   935   000FF8                     TBLPTRU         equ	4088	;# 
   936   000FF9                     PCLAT           equ	4089	;# 
   937   000FF9                     PC              equ	4089	;# 
   938   000FF9                     PCL             equ	4089	;# 
   939   000FFA                     PCLATH          equ	4090	;# 
   940   000FFB                     PCLATU          equ	4091	;# 
   941   000FFC                     STKPTR          equ	4092	;# 
   942   000FFD                     TOS             equ	4093	;# 
   943   000FFD                     TOSL            equ	4093	;# 
   944   000FFE                     TOSH            equ	4094	;# 
   945   000FFF                     TOSU            equ	4095	;# 
   946   000F80                     PORTA           equ	3968	;# 
   947   000F81                     PORTB           equ	3969	;# 
   948   000F82                     PORTC           equ	3970	;# 
   949   000F83                     PORTD           equ	3971	;# 
   950   000F84                     PORTE           equ	3972	;# 
   951   000F89                     LATA            equ	3977	;# 
   952   000F8A                     LATB            equ	3978	;# 
   953   000F8B                     LATC            equ	3979	;# 
   954   000F8C                     LATD            equ	3980	;# 
   955   000F8D                     LATE            equ	3981	;# 
   956   000F92                     TRISA           equ	3986	;# 
   957   000F92                     DDRA            equ	3986	;# 
   958   000F93                     TRISB           equ	3987	;# 
   959   000F93                     DDRB            equ	3987	;# 
   960   000F94                     TRISC           equ	3988	;# 
   961   000F94                     DDRC            equ	3988	;# 
   962   000F95                     TRISD           equ	3989	;# 
   963   000F95                     DDRD            equ	3989	;# 
   964   000F96                     TRISE           equ	3990	;# 
   965   000F96                     DDRE            equ	3990	;# 
   966   000F9B                     OSCTUNE         equ	3995	;# 
   967   000F9D                     PIE1            equ	3997	;# 
   968   000F9E                     PIR1            equ	3998	;# 
   969   000F9F                     IPR1            equ	3999	;# 
   970   000FA0                     PIE2            equ	4000	;# 
   971   000FA1                     PIR2            equ	4001	;# 
   972   000FA2                     IPR2            equ	4002	;# 
   973   000FA6                     EECON1          equ	4006	;# 
   974   000FA7                     EECON2          equ	4007	;# 
   975   000FA8                     EEDATA          equ	4008	;# 
   976   000FA9                     EEADR           equ	4009	;# 
   977   000FAB                     RCSTA           equ	4011	;# 
   978   000FAB                     RCSTA1          equ	4011	;# 
   979   000FAC                     TXSTA           equ	4012	;# 
   980   000FAC                     TXSTA1          equ	4012	;# 
   981   000FAD                     TXREG           equ	4013	;# 
   982   000FAD                     TXREG1          equ	4013	;# 
   983   000FAE                     RCREG           equ	4014	;# 
   984   000FAE                     RCREG1          equ	4014	;# 
   985   000FAF                     SPBRG           equ	4015	;# 
   986   000FAF                     SPBRG1          equ	4015	;# 
   987   000FB0                     SPBRGH          equ	4016	;# 
   988   000FB1                     T3CON           equ	4017	;# 
   989   000FB2                     TMR3            equ	4018	;# 
   990   000FB2                     TMR3L           equ	4018	;# 
   991   000FB3                     TMR3H           equ	4019	;# 
   992   000FB4                     CMCON           equ	4020	;# 
   993   000FB5                     CVRCON          equ	4021	;# 
   994   000FB6                     ECCP1AS         equ	4022	;# 
   995   000FB6                     ECCPAS          equ	4022	;# 
   996   000FB7                     PWM1CON         equ	4023	;# 
   997   000FB7                     ECCP1DEL        equ	4023	;# 
   998   000FB8                     BAUDCON         equ	4024	;# 
   999   000FB8                     BAUDCTL         equ	4024	;# 
  1000   000FBA                     CCP2CON         equ	4026	;# 
  1001   000FBB                     CCPR2           equ	4027	;# 
  1002   000FBB                     CCPR2L          equ	4027	;# 
  1003   000FBC                     CCPR2H          equ	4028	;# 
  1004   000FBD                     CCP1CON         equ	4029	;# 
  1005   000FBE                     CCPR1           equ	4030	;# 
  1006   000FBE                     CCPR1L          equ	4030	;# 
  1007   000FBF                     CCPR1H          equ	4031	;# 
  1008   000FC0                     ADCON2          equ	4032	;# 
  1009   000FC1                     ADCON1          equ	4033	;# 
  1010   000FC2                     ADCON0          equ	4034	;# 
  1011   000FC3                     ADRES           equ	4035	;# 
  1012   000FC3                     ADRESL          equ	4035	;# 
  1013   000FC4                     ADRESH          equ	4036	;# 
  1014   000FC5                     SSPCON2         equ	4037	;# 
  1015   000FC6                     SSPCON1         equ	4038	;# 
  1016   000FC7                     SSPSTAT         equ	4039	;# 
  1017   000FC8                     SSPADD          equ	4040	;# 
  1018   000FC9                     SSPBUF          equ	4041	;# 
  1019   000FCA                     T2CON           equ	4042	;# 
  1020   000FCB                     PR2             equ	4043	;# 
  1021   000FCB                     MEMCON          equ	4043	;# 
  1022   000FCC                     TMR2            equ	4044	;# 
  1023   000FCD                     T1CON           equ	4045	;# 
  1024   000FCE                     TMR1            equ	4046	;# 
  1025   000FCE                     TMR1L           equ	4046	;# 
  1026   000FCF                     TMR1H           equ	4047	;# 
  1027   000FD0                     RCON            equ	4048	;# 
  1028   000FD1                     WDTCON          equ	4049	;# 
  1029   000FD2                     HLVDCON         equ	4050	;# 
  1030   000FD2                     LVDCON          equ	4050	;# 
  1031   000FD3                     OSCCON          equ	4051	;# 
  1032   000FD5                     T0CON           equ	4053	;# 
  1033   000FD6                     TMR0            equ	4054	;# 
  1034   000FD6                     TMR0L           equ	4054	;# 
  1035   000FD7                     TMR0H           equ	4055	;# 
  1036   000FD8                     STATUS          equ	4056	;# 
  1037   000FD9                     FSR2            equ	4057	;# 
  1038   000FD9                     FSR2L           equ	4057	;# 
  1039   000FDA                     FSR2H           equ	4058	;# 
  1040   000FDB                     PLUSW2          equ	4059	;# 
  1041   000FDC                     PREINC2         equ	4060	;# 
  1042   000FDD                     POSTDEC2        equ	4061	;# 
  1043   000FDE                     POSTINC2        equ	4062	;# 
  1044   000FDF                     INDF2           equ	4063	;# 
  1045   000FE0                     BSR             equ	4064	;# 
  1046   000FE1                     FSR1            equ	4065	;# 
  1047   000FE1                     FSR1L           equ	4065	;# 
  1048   000FE2                     FSR1H           equ	4066	;# 
  1049   000FE3                     PLUSW1          equ	4067	;# 
  1050   000FE4                     PREINC1         equ	4068	;# 
  1051   000FE5                     POSTDEC1        equ	4069	;# 
  1052   000FE6                     POSTINC1        equ	4070	;# 
  1053   000FE7                     INDF1           equ	4071	;# 
  1054   000FE8                     WREG            equ	4072	;# 
  1055   000FE9                     FSR0            equ	4073	;# 
  1056   000FE9                     FSR0L           equ	4073	;# 
  1057   000FEA                     FSR0H           equ	4074	;# 
  1058   000FEB                     PLUSW0          equ	4075	;# 
  1059   000FEC                     PREINC0         equ	4076	;# 
  1060   000FED                     POSTDEC0        equ	4077	;# 
  1061   000FEE                     POSTINC0        equ	4078	;# 
  1062   000FEF                     INDF0           equ	4079	;# 
  1063   000FF0                     INTCON3         equ	4080	;# 
  1064   000FF1                     INTCON2         equ	4081	;# 
  1065   000FF2                     INTCON          equ	4082	;# 
  1066   000FF3                     PROD            equ	4083	;# 
  1067   000FF3                     PRODL           equ	4083	;# 
  1068   000FF4                     PRODH           equ	4084	;# 
  1069   000FF5                     TABLAT          equ	4085	;# 
  1070   000FF6                     TBLPTR          equ	4086	;# 
  1071   000FF6                     TBLPTRL         equ	4086	;# 
  1072   000FF7                     TBLPTRH         equ	4087	;# 
  1073   000FF8                     TBLPTRU         equ	4088	;# 
  1074   000FF9                     PCLAT           equ	4089	;# 
  1075   000FF9                     PC              equ	4089	;# 
  1076   000FF9                     PCL             equ	4089	;# 
  1077   000FFA                     PCLATH          equ	4090	;# 
  1078   000FFB                     PCLATU          equ	4091	;# 
  1079   000FFC                     STKPTR          equ	4092	;# 
  1080   000FFD                     TOS             equ	4093	;# 
  1081   000FFD                     TOSL            equ	4093	;# 
  1082   000FFE                     TOSH            equ	4094	;# 
  1083   000FFF                     TOSU            equ	4095	;# 
  1084   000F80                     PORTA           equ	3968	;# 
  1085   000F81                     PORTB           equ	3969	;# 
  1086   000F82                     PORTC           equ	3970	;# 
  1087   000F83                     PORTD           equ	3971	;# 
  1088   000F84                     PORTE           equ	3972	;# 
  1089   000F89                     LATA            equ	3977	;# 
  1090   000F8A                     LATB            equ	3978	;# 
  1091   000F8B                     LATC            equ	3979	;# 
  1092   000F8C                     LATD            equ	3980	;# 
  1093   000F8D                     LATE            equ	3981	;# 
  1094   000F92                     TRISA           equ	3986	;# 
  1095   000F92                     DDRA            equ	3986	;# 
  1096   000F93                     TRISB           equ	3987	;# 
  1097   000F93                     DDRB            equ	3987	;# 
  1098   000F94                     TRISC           equ	3988	;# 
  1099   000F94                     DDRC            equ	3988	;# 
  1100   000F95                     TRISD           equ	3989	;# 
  1101   000F95                     DDRD            equ	3989	;# 
  1102   000F96                     TRISE           equ	3990	;# 
  1103   000F96                     DDRE            equ	3990	;# 
  1104   000F9B                     OSCTUNE         equ	3995	;# 
  1105   000F9D                     PIE1            equ	3997	;# 
  1106   000F9E                     PIR1            equ	3998	;# 
  1107   000F9F                     IPR1            equ	3999	;# 
  1108   000FA0                     PIE2            equ	4000	;# 
  1109   000FA1                     PIR2            equ	4001	;# 
  1110   000FA2                     IPR2            equ	4002	;# 
  1111   000FA6                     EECON1          equ	4006	;# 
  1112   000FA7                     EECON2          equ	4007	;# 
  1113   000FA8                     EEDATA          equ	4008	;# 
  1114   000FA9                     EEADR           equ	4009	;# 
  1115   000FAB                     RCSTA           equ	4011	;# 
  1116   000FAB                     RCSTA1          equ	4011	;# 
  1117   000FAC                     TXSTA           equ	4012	;# 
  1118   000FAC                     TXSTA1          equ	4012	;# 
  1119   000FAD                     TXREG           equ	4013	;# 
  1120   000FAD                     TXREG1          equ	4013	;# 
  1121   000FAE                     RCREG           equ	4014	;# 
  1122   000FAE                     RCREG1          equ	4014	;# 
  1123   000FAF                     SPBRG           equ	4015	;# 
  1124   000FAF                     SPBRG1          equ	4015	;# 
  1125   000FB0                     SPBRGH          equ	4016	;# 
  1126   000FB1                     T3CON           equ	4017	;# 
  1127   000FB2                     TMR3            equ	4018	;# 
  1128   000FB2                     TMR3L           equ	4018	;# 
  1129   000FB3                     TMR3H           equ	4019	;# 
  1130   000FB4                     CMCON           equ	4020	;# 
  1131   000FB5                     CVRCON          equ	4021	;# 
  1132   000FB6                     ECCP1AS         equ	4022	;# 
  1133   000FB6                     ECCPAS          equ	4022	;# 
  1134   000FB7                     PWM1CON         equ	4023	;# 
  1135   000FB7                     ECCP1DEL        equ	4023	;# 
  1136   000FB8                     BAUDCON         equ	4024	;# 
  1137   000FB8                     BAUDCTL         equ	4024	;# 
  1138   000FBA                     CCP2CON         equ	4026	;# 
  1139   000FBB                     CCPR2           equ	4027	;# 
  1140   000FBB                     CCPR2L          equ	4027	;# 
  1141   000FBC                     CCPR2H          equ	4028	;# 
  1142   000FBD                     CCP1CON         equ	4029	;# 
  1143   000FBE                     CCPR1           equ	4030	;# 
  1144   000FBE                     CCPR1L          equ	4030	;# 
  1145   000FBF                     CCPR1H          equ	4031	;# 
  1146   000FC0                     ADCON2          equ	4032	;# 
  1147   000FC1                     ADCON1          equ	4033	;# 
  1148   000FC2                     ADCON0          equ	4034	;# 
  1149   000FC3                     ADRES           equ	4035	;# 
  1150   000FC3                     ADRESL          equ	4035	;# 
  1151   000FC4                     ADRESH          equ	4036	;# 
  1152   000FC5                     SSPCON2         equ	4037	;# 
  1153   000FC6                     SSPCON1         equ	4038	;# 
  1154   000FC7                     SSPSTAT         equ	4039	;# 
  1155   000FC8                     SSPADD          equ	4040	;# 
  1156   000FC9                     SSPBUF          equ	4041	;# 
  1157   000FCA                     T2CON           equ	4042	;# 
  1158   000FCB                     PR2             equ	4043	;# 
  1159   000FCB                     MEMCON          equ	4043	;# 
  1160   000FCC                     TMR2            equ	4044	;# 
  1161   000FCD                     T1CON           equ	4045	;# 
  1162   000FCE                     TMR1            equ	4046	;# 
  1163   000FCE                     TMR1L           equ	4046	;# 
  1164   000FCF                     TMR1H           equ	4047	;# 
  1165   000FD0                     RCON            equ	4048	;# 
  1166   000FD1                     WDTCON          equ	4049	;# 
  1167   000FD2                     HLVDCON         equ	4050	;# 
  1168   000FD2                     LVDCON          equ	4050	;# 
  1169   000FD3                     OSCCON          equ	4051	;# 
  1170   000FD5                     T0CON           equ	4053	;# 
  1171   000FD6                     TMR0            equ	4054	;# 
  1172   000FD6                     TMR0L           equ	4054	;# 
  1173   000FD7                     TMR0H           equ	4055	;# 
  1174   000FD8                     STATUS          equ	4056	;# 
  1175   000FD9                     FSR2            equ	4057	;# 
  1176   000FD9                     FSR2L           equ	4057	;# 
  1177   000FDA                     FSR2H           equ	4058	;# 
  1178   000FDB                     PLUSW2          equ	4059	;# 
  1179   000FDC                     PREINC2         equ	4060	;# 
  1180   000FDD                     POSTDEC2        equ	4061	;# 
  1181   000FDE                     POSTINC2        equ	4062	;# 
  1182   000FDF                     INDF2           equ	4063	;# 
  1183   000FE0                     BSR             equ	4064	;# 
  1184   000FE1                     FSR1            equ	4065	;# 
  1185   000FE1                     FSR1L           equ	4065	;# 
  1186   000FE2                     FSR1H           equ	4066	;# 
  1187   000FE3                     PLUSW1          equ	4067	;# 
  1188   000FE4                     PREINC1         equ	4068	;# 
  1189   000FE5                     POSTDEC1        equ	4069	;# 
  1190   000FE6                     POSTINC1        equ	4070	;# 
  1191   000FE7                     INDF1           equ	4071	;# 
  1192   000FE8                     WREG            equ	4072	;# 
  1193   000FE9                     FSR0            equ	4073	;# 
  1194   000FE9                     FSR0L           equ	4073	;# 
  1195   000FEA                     FSR0H           equ	4074	;# 
  1196   000FEB                     PLUSW0          equ	4075	;# 
  1197   000FEC                     PREINC0         equ	4076	;# 
  1198   000FED                     POSTDEC0        equ	4077	;# 
  1199   000FEE                     POSTINC0        equ	4078	;# 
  1200   000FEF                     INDF0           equ	4079	;# 
  1201   000FF0                     INTCON3         equ	4080	;# 
  1202   000FF1                     INTCON2         equ	4081	;# 
  1203   000FF2                     INTCON          equ	4082	;# 
  1204   000FF3                     PROD            equ	4083	;# 
  1205   000FF3                     PRODL           equ	4083	;# 
  1206   000FF4                     PRODH           equ	4084	;# 
  1207   000FF5                     TABLAT          equ	4085	;# 
  1208   000FF6                     TBLPTR          equ	4086	;# 
  1209   000FF6                     TBLPTRL         equ	4086	;# 
  1210   000FF7                     TBLPTRH         equ	4087	;# 
  1211   000FF8                     TBLPTRU         equ	4088	;# 
  1212   000FF9                     PCLAT           equ	4089	;# 
  1213   000FF9                     PC              equ	4089	;# 
  1214   000FF9                     PCL             equ	4089	;# 
  1215   000FFA                     PCLATH          equ	4090	;# 
  1216   000FFB                     PCLATU          equ	4091	;# 
  1217   000FFC                     STKPTR          equ	4092	;# 
  1218   000FFD                     TOS             equ	4093	;# 
  1219   000FFD                     TOSL            equ	4093	;# 
  1220   000FFE                     TOSH            equ	4094	;# 
  1221   000FFF                     TOSU            equ	4095	;# 
  1222   000F80                     PORTA           equ	3968	;# 
  1223   000F81                     PORTB           equ	3969	;# 
  1224   000F82                     PORTC           equ	3970	;# 
  1225   000F83                     PORTD           equ	3971	;# 
  1226   000F84                     PORTE           equ	3972	;# 
  1227   000F89                     LATA            equ	3977	;# 
  1228   000F8A                     LATB            equ	3978	;# 
  1229   000F8B                     LATC            equ	3979	;# 
  1230   000F8C                     LATD            equ	3980	;# 
  1231   000F8D                     LATE            equ	3981	;# 
  1232   000F92                     TRISA           equ	3986	;# 
  1233   000F92                     DDRA            equ	3986	;# 
  1234   000F93                     TRISB           equ	3987	;# 
  1235   000F93                     DDRB            equ	3987	;# 
  1236   000F94                     TRISC           equ	3988	;# 
  1237   000F94                     DDRC            equ	3988	;# 
  1238   000F95                     TRISD           equ	3989	;# 
  1239   000F95                     DDRD            equ	3989	;# 
  1240   000F96                     TRISE           equ	3990	;# 
  1241   000F96                     DDRE            equ	3990	;# 
  1242   000F9B                     OSCTUNE         equ	3995	;# 
  1243   000F9D                     PIE1            equ	3997	;# 
  1244   000F9E                     PIR1            equ	3998	;# 
  1245   000F9F                     IPR1            equ	3999	;# 
  1246   000FA0                     PIE2            equ	4000	;# 
  1247   000FA1                     PIR2            equ	4001	;# 
  1248   000FA2                     IPR2            equ	4002	;# 
  1249   000FA6                     EECON1          equ	4006	;# 
  1250   000FA7                     EECON2          equ	4007	;# 
  1251   000FA8                     EEDATA          equ	4008	;# 
  1252   000FA9                     EEADR           equ	4009	;# 
  1253   000FAB                     RCSTA           equ	4011	;# 
  1254   000FAB                     RCSTA1          equ	4011	;# 
  1255   000FAC                     TXSTA           equ	4012	;# 
  1256   000FAC                     TXSTA1          equ	4012	;# 
  1257   000FAD                     TXREG           equ	4013	;# 
  1258   000FAD                     TXREG1          equ	4013	;# 
  1259   000FAE                     RCREG           equ	4014	;# 
  1260   000FAE                     RCREG1          equ	4014	;# 
  1261   000FAF                     SPBRG           equ	4015	;# 
  1262   000FAF                     SPBRG1          equ	4015	;# 
  1263   000FB0                     SPBRGH          equ	4016	;# 
  1264   000FB1                     T3CON           equ	4017	;# 
  1265   000FB2                     TMR3            equ	4018	;# 
  1266   000FB2                     TMR3L           equ	4018	;# 
  1267   000FB3                     TMR3H           equ	4019	;# 
  1268   000FB4                     CMCON           equ	4020	;# 
  1269   000FB5                     CVRCON          equ	4021	;# 
  1270   000FB6                     ECCP1AS         equ	4022	;# 
  1271   000FB6                     ECCPAS          equ	4022	;# 
  1272   000FB7                     PWM1CON         equ	4023	;# 
  1273   000FB7                     ECCP1DEL        equ	4023	;# 
  1274   000FB8                     BAUDCON         equ	4024	;# 
  1275   000FB8                     BAUDCTL         equ	4024	;# 
  1276   000FBA                     CCP2CON         equ	4026	;# 
  1277   000FBB                     CCPR2           equ	4027	;# 
  1278   000FBB                     CCPR2L          equ	4027	;# 
  1279   000FBC                     CCPR2H          equ	4028	;# 
  1280   000FBD                     CCP1CON         equ	4029	;# 
  1281   000FBE                     CCPR1           equ	4030	;# 
  1282   000FBE                     CCPR1L          equ	4030	;# 
  1283   000FBF                     CCPR1H          equ	4031	;# 
  1284   000FC0                     ADCON2          equ	4032	;# 
  1285   000FC1                     ADCON1          equ	4033	;# 
  1286   000FC2                     ADCON0          equ	4034	;# 
  1287   000FC3                     ADRES           equ	4035	;# 
  1288   000FC3                     ADRESL          equ	4035	;# 
  1289   000FC4                     ADRESH          equ	4036	;# 
  1290   000FC5                     SSPCON2         equ	4037	;# 
  1291   000FC6                     SSPCON1         equ	4038	;# 
  1292   000FC7                     SSPSTAT         equ	4039	;# 
  1293   000FC8                     SSPADD          equ	4040	;# 
  1294   000FC9                     SSPBUF          equ	4041	;# 
  1295   000FCA                     T2CON           equ	4042	;# 
  1296   000FCB                     PR2             equ	4043	;# 
  1297   000FCB                     MEMCON          equ	4043	;# 
  1298   000FCC                     TMR2            equ	4044	;# 
  1299   000FCD                     T1CON           equ	4045	;# 
  1300   000FCE                     TMR1            equ	4046	;# 
  1301   000FCE                     TMR1L           equ	4046	;# 
  1302   000FCF                     TMR1H           equ	4047	;# 
  1303   000FD0                     RCON            equ	4048	;# 
  1304   000FD1                     WDTCON          equ	4049	;# 
  1305   000FD2                     HLVDCON         equ	4050	;# 
  1306   000FD2                     LVDCON          equ	4050	;# 
  1307   000FD3                     OSCCON          equ	4051	;# 
  1308   000FD5                     T0CON           equ	4053	;# 
  1309   000FD6                     TMR0            equ	4054	;# 
  1310   000FD6                     TMR0L           equ	4054	;# 
  1311   000FD7                     TMR0H           equ	4055	;# 
  1312   000FD8                     STATUS          equ	4056	;# 
  1313   000FD9                     FSR2            equ	4057	;# 
  1314   000FD9                     FSR2L           equ	4057	;# 
  1315   000FDA                     FSR2H           equ	4058	;# 
  1316   000FDB                     PLUSW2          equ	4059	;# 
  1317   000FDC                     PREINC2         equ	4060	;# 
  1318   000FDD                     POSTDEC2        equ	4061	;# 
  1319   000FDE                     POSTINC2        equ	4062	;# 
  1320   000FDF                     INDF2           equ	4063	;# 
  1321   000FE0                     BSR             equ	4064	;# 
  1322   000FE1                     FSR1            equ	4065	;# 
  1323   000FE1                     FSR1L           equ	4065	;# 
  1324   000FE2                     FSR1H           equ	4066	;# 
  1325   000FE3                     PLUSW1          equ	4067	;# 
  1326   000FE4                     PREINC1         equ	4068	;# 
  1327   000FE5                     POSTDEC1        equ	4069	;# 
  1328   000FE6                     POSTINC1        equ	4070	;# 
  1329   000FE7                     INDF1           equ	4071	;# 
  1330   000FE8                     WREG            equ	4072	;# 
  1331   000FE9                     FSR0            equ	4073	;# 
  1332   000FE9                     FSR0L           equ	4073	;# 
  1333   000FEA                     FSR0H           equ	4074	;# 
  1334   000FEB                     PLUSW0          equ	4075	;# 
  1335   000FEC                     PREINC0         equ	4076	;# 
  1336   000FED                     POSTDEC0        equ	4077	;# 
  1337   000FEE                     POSTINC0        equ	4078	;# 
  1338   000FEF                     INDF0           equ	4079	;# 
  1339   000FF0                     INTCON3         equ	4080	;# 
  1340   000FF1                     INTCON2         equ	4081	;# 
  1341   000FF2                     INTCON          equ	4082	;# 
  1342   000FF3                     PROD            equ	4083	;# 
  1343   000FF3                     PRODL           equ	4083	;# 
  1344   000FF4                     PRODH           equ	4084	;# 
  1345   000FF5                     TABLAT          equ	4085	;# 
  1346   000FF6                     TBLPTR          equ	4086	;# 
  1347   000FF6                     TBLPTRL         equ	4086	;# 
  1348   000FF7                     TBLPTRH         equ	4087	;# 
  1349   000FF8                     TBLPTRU         equ	4088	;# 
  1350   000FF9                     PCLAT           equ	4089	;# 
  1351   000FF9                     PC              equ	4089	;# 
  1352   000FF9                     PCL             equ	4089	;# 
  1353   000FFA                     PCLATH          equ	4090	;# 
  1354   000FFB                     PCLATU          equ	4091	;# 
  1355   000FFC                     STKPTR          equ	4092	;# 
  1356   000FFD                     TOS             equ	4093	;# 
  1357   000FFD                     TOSL            equ	4093	;# 
  1358   000FFE                     TOSH            equ	4094	;# 
  1359   000FFF                     TOSU            equ	4095	;# 
  1360                           
  1361                           	psect	idataCOMRAM
  1362   00161A                     __pidataCOMRAM:
  1363                           	callstack 0
  1364                           
  1365                           ;initializer for lcd_gotoxy@F3092
  1366   00161A  00                 	db	0
  1367   00161B  40                 	db	64
  1368   00161C  14                 	db	20
  1369   00161D  54                 	db	84
  1370   000F8C                     _LATDbits       set	3980
  1371   000F93                     _TRISB          set	3987
  1372   000F94                     _TRISC          set	3988
  1373   000F95                     _TRISD          set	3989
  1374   000F93                     _TRISBbits      set	3987
  1375   000F8A                     _LATBbits       set	3978
  1376   000F82                     _PORTCbits      set	3970
  1377   000F8B                     _LATCbits       set	3979
  1378   000F94                     _TRISCbits      set	3988
  1379   000FA7                     _EECON2         set	4007
  1380   000FF2                     _INTCONbits     set	4082
  1381   000FA6                     _EECON1bits     set	4006
  1382   000FA8                     _EEDATA         set	4008
  1383   000FA9                     _EEADR          set	4009
  1384   000FC3                     _ADRESL         set	4035
  1385   000FC4                     _ADRESH         set	4036
  1386   000FC2                     _ADCON0         set	4034
  1387   000FC2                     _ADCON0bits     set	4034
  1388   000FC0                     _ADCON2bits     set	4032
  1389   000FC1                     _ADCON1         set	4033
  1390   000F96                     _TRISEbits      set	3990
  1391                           
  1392                           	psect	smallconst
  1393   000600                     __psmallconst:
  1394                           	callstack 0
  1395   000600  00                 	db	0
  1396   000601  4D                 	db	77	;'M'
  1397   000602  65                 	db	101	;'e'
  1398   000603  6E                 	db	110	;'n'
  1399   000604  75                 	db	117	;'u'
  1400   000605  3A                 	db	58	;':'
  1401   000606  20                 	db	32
  1402   000607  31                 	db	49	;'1'
  1403   000608  2E                 	db	46
  1404   000609  48                 	db	72	;'H'
  1405   00060A  56                 	db	86	;'V'
  1406   00060B  20                 	db	32
  1407   00060C  32                 	db	50	;'2'
  1408   00060D  2E                 	db	46
  1409   00060E  4C                 	db	76	;'L'
  1410   00060F  56                 	db	86	;'V'
  1411   000610  20                 	db	32
  1412   000611  33                 	db	51	;'3'
  1413   000612  2E                 	db	46
  1414   000613  49                 	db	73	;'I'
  1415   000614  00                 	db	0
  1416   000615                     STR_2:
  1417   000615  44                 	db	68	;'D'
  1418   000616  52                 	db	82	;'R'
  1419   000617  59                 	db	89	;'Y'
  1420   000618  20                 	db	32
  1421   000619  52                 	db	82	;'R'
  1422   00061A  55                 	db	85	;'U'
  1423   00061B  4E                 	db	78	;'N'
  1424   00061C  00                 	db	0
  1425   00061D  33                 	db	51	;'3'
  1426   00061E  3A                 	db	58	;':'
  1427   00061F  49                 	db	73	;'I'
  1428   000620  20                 	db	32
  1429   000621  20                 	db	32
  1430   000622  00                 	db	0
  1431   000623  31                 	db	49	;'1'
  1432   000624  3A                 	db	58	;':'
  1433   000625  48                 	db	72	;'H'
  1434   000626  56                 	db	86	;'V'
  1435   000627  20                 	db	32
  1436   000628  00                 	db	0
  1437   000629  32                 	db	50	;'2'
  1438   00062A  3A                 	db	58	;':'
  1439   00062B  4C                 	db	76	;'L'
  1440   00062C  56                 	db	86	;'V'
  1441   00062D  20                 	db	32
  1442   00062E  00                 	db	0
  1443   00062F                     STR_1:
  1444   00062F  48                 	db	72	;'H'
  1445   000630  45                 	db	69	;'E'
  1446   000631  4C                 	db	76	;'L'
  1447   000632  4C                 	db	76	;'L'
  1448   000633  4F                 	db	79	;'O'
  1449   000634  00                 	db	0
  1450   000635  00                 	db	0	; dummy byte at the end
  1451   000600                     __smallconst    set	__psmallconst
  1452   000600                     __mediumconst   set	__psmallconst
  1453   000001                     __activetblptr  equ	1
  1454                           
  1455                           ; #config settings
  1456                           
  1457                           	psect	cinit
  1458   0013C0                     __pcinit:
  1459                           	callstack 0
  1460   0013C0                     start_initialization:
  1461                           	callstack 0
  1462   0013C0                     __initialization:
  1463                           	callstack 0
  1464                           
  1465                           ; Initialize objects allocated to COMRAM (4 bytes)
  1466                           ; load TBLPTR registers with __pidataCOMRAM
  1467   0013C0  0E1A               	movlw	low __pidataCOMRAM
  1468   0013C2  6EF6               	movwf	tblptrl,c
  1469   0013C4  0E16               	movlw	high __pidataCOMRAM
  1470   0013C6  6EF7               	movwf	tblptrh,c
  1471   0013C8  0E00               	movlw	low (__pidataCOMRAM shr (0+16))
  1472   0013CA  6EF8               	movwf	tblptru,c
  1473   0013CC  EE00  F059         	lfsr	0,__pdataCOMRAM
  1474   0013D0  EE10 F004          	lfsr	1,4
  1475   0013D4                     copy_data0:
  1476   0013D4  0009               	tblrd		*+
  1477   0013D6  CFF5 FFEE          	movff	tablat,postinc0
  1478   0013DA  50E5               	movf	postdec1,w,c
  1479   0013DC  50E1               	movf	fsr1l,w,c
  1480   0013DE  E1FA               	bnz	copy_data0
  1481                           
  1482                           ; Clear objects allocated to COMRAM (15 bytes)
  1483   0013E0  EE00  F04A         	lfsr	0,__pbssCOMRAM
  1484   0013E4  0E0F               	movlw	15
  1485   0013E6                     clear_0:
  1486   0013E6  6AEE               	clrf	postinc0,c
  1487   0013E8  06E8               	decf	wreg,f,c
  1488   0013EA  E1FD               	bnz	clear_0
  1489   0013EC                     end_of_initialization:
  1490                           	callstack 0
  1491   0013EC                     __end_of__initialization:
  1492                           	callstack 0
  1493   0013EC  0E00               	movlw	low (__Lsmallconst shr (0+16))
  1494   0013EE  6EF8               	movwf	tblptru,c
  1495   0013F0  0E06               	movlw	high __Lsmallconst
  1496   0013F2  6EF7               	movwf	tblptrh,c
  1497   0013F4  0100               	movlb	0
  1498   0013F6  EF52  F008         	goto	_main	;jump to C main() function
  1499                           
  1500                           	psect	bssCOMRAM
  1501   00004A                     __pbssCOMRAM:
  1502                           	callstack 0
  1503   00004A                     _dry_val:
  1504                           	callstack 0
  1505   00004A                     	ds	4
  1506   00004E                     _high_val:
  1507                           	callstack 0
  1508   00004E                     	ds	4
  1509   000052                     _low_val:
  1510                           	callstack 0
  1511   000052                     	ds	4
  1512   000056                     _dry_run_count:
  1513                           	callstack 0
  1514   000056                     	ds	2
  1515   000058                     _motor_state:
  1516                           	callstack 0
  1517   000058                     	ds	1
  1518                           
  1519                           	psect	dataCOMRAM
  1520   000059                     __pdataCOMRAM:
  1521                           	callstack 0
  1522   000059                     lcd_gotoxy@F3092:
  1523                           	callstack 0
  1524   000059                     	ds	4
  1525                           
  1526                           	psect	cstackCOMRAM
  1527   000001                     __pcstackCOMRAM:
  1528                           	callstack 0
  1529   000001                     ?_read_adc_raw:
  1530                           	callstack 0
  1531   000001                     ?___xxtofl:
  1532                           	callstack 0
  1533   000001                     lcd_delay_us@us:
  1534                           	callstack 0
  1535   000001                     lcd_delay_ms@ms:
  1536                           	callstack 0
  1537   000001                     ___flge@ff1:
  1538                           	callstack 0
  1539   000001                     ___xxtofl@val:
  1540                           	callstack 0
  1541   000001                     
  1542                           ; 1 bytes @ 0x0
  1543   000001                     	ds	2
  1544   000003                     ??_read_adc_raw:
  1545   000003                     ??_lcd_delay_ms:
  1546   000003                     ??_lcd_send_nibble:
  1547                           
  1548                           ; 1 bytes @ 0x2
  1549   000003                     	ds	1
  1550   000004                     lcd_send_nibble@nibble:
  1551                           	callstack 0
  1552                           
  1553                           ; 1 bytes @ 0x3
  1554   000004                     	ds	1
  1555   000005                     read_adc_raw@channel:
  1556                           	callstack 0
  1557   000005                     lcd_send_byte@byte:
  1558                           	callstack 0
  1559   000005                     ___flge@ff2:
  1560                           	callstack 0
  1561   000005                     ??___xxtofl:
  1562                           
  1563                           ; 1 bytes @ 0x4
  1564   000005                     	ds	1
  1565   000006                     lcd_send_byte@isData:
  1566                           	callstack 0
  1567   000006                     
  1568                           ; 1 bytes @ 0x5
  1569   000006                     	ds	1
  1570   000007                     lcd_init@i:
  1571                           	callstack 0
  1572   000007                     lcd_putc@c:
  1573                           	callstack 0
  1574   000007                     lcd_gotoxy@y:
  1575                           	callstack 0
  1576   000007                     
  1577                           ; 1 bytes @ 0x6
  1578   000007                     	ds	1
  1579   000008                     lcd_puts@str:
  1580                           	callstack 0
  1581   000008                     ??_lcd_gotoxy:
  1582   000008                     
  1583                           ; 1 bytes @ 0x7
  1584   000008                     	ds	1
  1585   000009                     ___xxtofl@sign:
  1586                           	callstack 0
  1587   000009                     ??___flge:
  1588                           
  1589                           ; 1 bytes @ 0x8
  1590   000009                     	ds	1
  1591   00000A                     ___xxtofl@exp:
  1592                           	callstack 0
  1593   00000A                     lcd_gotoxy@addr:
  1594                           	callstack 0
  1595                           
  1596                           ; 4 bytes @ 0x9
  1597   00000A                     	ds	1
  1598   00000B                     ___xxtofl@arg:
  1599                           	callstack 0
  1600                           
  1601                           ; 4 bytes @ 0xA
  1602   00000B                     	ds	2
  1603   00000D                     
  1604                           ; 1 bytes @ 0xC
  1605   00000D                     	ds	1
  1606   00000E                     lcd_gotoxy@x:
  1607                           	callstack 0
  1608                           
  1609                           ; 1 bytes @ 0xD
  1610   00000E                     	ds	1
  1611   00000F                     ?___flmul:
  1612                           	callstack 0
  1613   00000F                     ___flmul@b:
  1614                           	callstack 0
  1615                           
  1616                           ; 4 bytes @ 0xE
  1617   00000F                     	ds	4
  1618   000013                     ___flmul@a:
  1619                           	callstack 0
  1620                           
  1621                           ; 4 bytes @ 0x12
  1622   000013                     	ds	4
  1623   000017                     ??___flmul:
  1624                           
  1625                           ; 1 bytes @ 0x16
  1626   000017                     	ds	4
  1627   00001B                     ___flmul@sign:
  1628                           	callstack 0
  1629                           
  1630                           ; 1 bytes @ 0x1A
  1631   00001B                     	ds	1
  1632   00001C                     ___flmul@grs:
  1633                           	callstack 0
  1634                           
  1635                           ; 4 bytes @ 0x1B
  1636   00001C                     	ds	4
  1637   000020                     ___flmul@aexp:
  1638                           	callstack 0
  1639                           
  1640                           ; 1 bytes @ 0x1F
  1641   000020                     	ds	1
  1642   000021                     ___flmul@bexp:
  1643                           	callstack 0
  1644                           
  1645                           ; 1 bytes @ 0x20
  1646   000021                     	ds	1
  1647   000022                     ___flmul@prod:
  1648                           	callstack 0
  1649                           
  1650                           ; 4 bytes @ 0x21
  1651   000022                     	ds	4
  1652   000026                     ___flmul@temp:
  1653                           	callstack 0
  1654                           
  1655                           ; 2 bytes @ 0x25
  1656   000026                     	ds	2
  1657   000028                     ?___fldiv:
  1658                           	callstack 0
  1659   000028                     ___fldiv@b:
  1660                           	callstack 0
  1661                           
  1662                           ; 4 bytes @ 0x27
  1663   000028                     	ds	4
  1664   00002C                     ___fldiv@a:
  1665                           	callstack 0
  1666                           
  1667                           ; 4 bytes @ 0x2B
  1668   00002C                     	ds	4
  1669   000030                     ??___fldiv:
  1670                           
  1671                           ; 1 bytes @ 0x2F
  1672   000030                     	ds	4
  1673   000034                     ___fldiv@rem:
  1674                           	callstack 0
  1675                           
  1676                           ; 4 bytes @ 0x33
  1677   000034                     	ds	4
  1678   000038                     ___fldiv@sign:
  1679                           	callstack 0
  1680                           
  1681                           ; 1 bytes @ 0x37
  1682   000038                     	ds	1
  1683   000039                     ___fldiv@new_exp:
  1684                           	callstack 0
  1685                           
  1686                           ; 2 bytes @ 0x38
  1687   000039                     	ds	2
  1688   00003B                     ___fldiv@grs:
  1689                           	callstack 0
  1690                           
  1691                           ; 4 bytes @ 0x3A
  1692   00003B                     	ds	4
  1693   00003F                     ___fldiv@bexp:
  1694                           	callstack 0
  1695                           
  1696                           ; 1 bytes @ 0x3E
  1697   00003F                     	ds	1
  1698   000040                     ___fldiv@aexp:
  1699                           	callstack 0
  1700                           
  1701                           ; 1 bytes @ 0x3F
  1702   000040                     	ds	1
  1703   000041                     ?_read_adc_voltage:
  1704                           	callstack 0
  1705                           
  1706                           ; 4 bytes @ 0x40
  1707   000041                     	ds	4
  1708   000045                     read_adc_voltage@raw:
  1709                           	callstack 0
  1710   000045                     
  1711                           ; 1 bytes @ 0x44
  1712   000045                     	ds	2
  1713   000047                     read_adc_voltage@channel:
  1714                           	callstack 0
  1715                           
  1716                           ; 1 bytes @ 0x46
  1717   000047                     	ds	1
  1718   000048                     ??_main:
  1719                           
  1720                           ; 1 bytes @ 0x47
  1721   000048                     	ds	2
  1722                           
  1723 ;;
  1724 ;;Main: autosize = 0, tempsize = 2, incstack = 0, save=0
  1725 ;;
  1726 ;; *************** function _main *****************
  1727 ;; Defined at:
  1728 ;;		line 35 in file "WaterLevelController.X/src/main.c"
  1729 ;; Parameters:    Size  Location     Type
  1730 ;;		None
  1731 ;; Auto vars:     Size  Location     Type
  1732 ;;  Dry_run_fl      2    0        int 
  1733 ;; Return value:  Size  Location     Type
  1734 ;;                  1    wreg      void 
  1735 ;; Registers used:
  1736 ;;		wreg, fsr2l, fsr2h, status,2, status,0, tblptrl, tblptrh, tblptru, prodl, prodh, cstack
  1737 ;; Tracked objects:
  1738 ;;		On entry : 0/0
  1739 ;;		On exit  : 0/0
  1740 ;;		Unchanged: 0/0
  1741 ;; Data sizes:     COMRAM   BANK0   BANK1   BANK2   BANK3   BANK4   BANK5
  1742 ;;      Params:         0       0       0       0       0       0       0
  1743 ;;      Locals:         0       0       0       0       0       0       0
  1744 ;;      Temps:          2       0       0       0       0       0       0
  1745 ;;      Totals:         2       0       0       0       0       0       0
  1746 ;;Total ram usage:        2 bytes
  1747 ;; Hardware stack levels required when called: 5
  1748 ;; This function calls:
  1749 ;;		_init_adc
  1750 ;;		_init_led
  1751 ;;		_init_motor
  1752 ;;		_is_dry_run_triggered
  1753 ;;		_is_high_level
  1754 ;;		_is_low_level
  1755 ;;		_is_motor_running
  1756 ;;		_lcd_clear
  1757 ;;		_lcd_gotoxy
  1758 ;;		_lcd_init
  1759 ;;		_lcd_puts
  1760 ;;		_motor_off
  1761 ;;		_motor_on
  1762 ;;		_update_sensor_values
  1763 ;; This function is called by:
  1764 ;;		Startup code after reset
  1765 ;; This function uses a non-reentrant model
  1766 ;;
  1767                           
  1768                           	psect	text0
  1769   0010A4                     __ptext0:
  1770                           	callstack 0
  1771   0010A4                     _main:
  1772                           	callstack 26
  1773   0010A4                     
  1774                           ;WaterLevelController.X/src/main.c: 38: 
  1775   0010A4  EC19  F009         	call	_lcd_init	;wreg free
  1776   0010A8                     
  1777                           ;WaterLevelController.X/src/main.c: 39:         if(dry_run_count > 30)
  1778   0010A8  EC09  F00B         	call	_lcd_clear	;wreg free
  1779   0010AC                     
  1780                           ;WaterLevelController.X/src/main.c: 40:         {
  1781   0010AC  ECCB  F00A         	call	_init_adc	;wreg free
  1782   0010B0                     
  1783                           ;WaterLevelController.X/src/main.c: 41:             LATCbits.LATC2 = 1;
  1784   0010B0  ECF0  F00A         	call	_init_led	;wreg free
  1785   0010B4                     
  1786                           ;WaterLevelController.X/src/main.c: 42:             _delay((unsigned long)((500)*(800000
      +                          0/4000.0)));
  1787   0010B4  EC00  F00B         	call	_init_motor	;wreg free
  1788   0010B8                     
  1789                           ;WaterLevelController.X/src/main.c: 44:             lcd_clear();
  1790   0010B8  EC09  F00B         	call	_lcd_clear	;wreg free
  1791   0010BC                     
  1792                           ;WaterLevelController.X/src/main.c: 45:             lcd_gotoxy(1, 1);
  1793   0010BC  0E2F               	movlw	low STR_1
  1794   0010BE  6E08               	movwf	lcd_puts@str^0,c
  1795   0010C0  ECA0  F00A         	call	_lcd_puts	;wreg free
  1796   0010C4                     l2216:
  1797                           
  1798                           ;WaterLevelController.X/src/main.c: 47: 
  1799   0010C4  ECBE  F009         	call	_update_sensor_values	;wreg free
  1800   0010C8                     
  1801                           ;WaterLevelController.X/src/main.c: 49: 
  1802   0010C8  EC1A  F00A         	call	_is_low_level	;wreg free
  1803   0010CC  0900               	iorlw	0
  1804   0010CE  B4D8               	btfsc	status,2,c
  1805   0010D0  EF6C  F008         	goto	u1641
  1806   0010D4  EF6E  F008         	goto	u1640
  1807   0010D8                     u1641:
  1808   0010D8  EF7D  F008         	goto	l2226
  1809   0010DC                     u1640:
  1810   0010DC  EC36  F00A         	call	_is_high_level	;wreg free
  1811   0010E0  0900               	iorlw	0
  1812   0010E2  A4D8               	btfss	status,2,c
  1813   0010E4  EF76  F008         	goto	u1651
  1814   0010E8  EF78  F008         	goto	u1650
  1815   0010EC                     u1651:
  1816   0010EC  EF7D  F008         	goto	l2226
  1817   0010F0                     u1650:
  1818   0010F0                     
  1819                           ;WaterLevelController.X/src/main.c: 50:             Dry_run_fl = 1;
  1820   0010F0  ECFB  F00A         	call	_motor_on	;wreg free
  1821   0010F4                     
  1822                           ;WaterLevelController.X/src/main.c: 51:             dry_run_count = 0;
  1823   0010F4  888B               	bsf	139,4,c	;volatile
  1824                           
  1825                           ;WaterLevelController.X/src/main.c: 52:         }
  1826   0010F6  EF8A  F008         	goto	l2232
  1827   0010FA                     l2226:
  1828   0010FA  EC36  F00A         	call	_is_high_level	;wreg free
  1829   0010FE  0900               	iorlw	0
  1830   001100  B4D8               	btfsc	status,2,c
  1831   001102  EF85  F008         	goto	u1661
  1832   001106  EF87  F008         	goto	u1660
  1833   00110A                     u1661:
  1834   00110A  EF8A  F008         	goto	l2232
  1835   00110E                     u1660:
  1836   00110E                     
  1837                           ;WaterLevelController.X/src/main.c: 53:         if (is_dry_run_triggered() && is_motor_r
      +                          unning()) {
  1838   00110E  8A8B               	bsf	139,5,c	;volatile
  1839   001110                     
  1840                           ;WaterLevelController.X/src/main.c: 54: 
  1841   001110  EC05  F00B         	call	_motor_off	;wreg free
  1842   001114                     l2232:
  1843                           
  1844                           ;WaterLevelController.X/src/main.c: 57:         else{
  1845   001114  BE57               	btfsc	(_dry_run_count+1)^0,7,c
  1846   001116  EF96  F008         	goto	u1671
  1847   00111A  5057               	movf	(_dry_run_count+1)^0,w,c
  1848   00111C  E109               	bnz	u1670
  1849   00111E  0E1F               	movlw	31
  1850   001120  5C56               	subwf	_dry_run_count^0,w,c
  1851   001122  A0D8               	btfss	status,0,c
  1852   001124  EF96  F008         	goto	u1671
  1853   001128  EF98  F008         	goto	u1670
  1854   00112C                     u1671:
  1855   00112C  EFB4  F008         	goto	l2250
  1856   001130                     u1670:
  1857   001130                     
  1858                           ;WaterLevelController.X/src/main.c: 58:             LATCbits.LATC2 = 0;;WaterLevelContro
      +                          ller.X/src/main.c: 59:         }
  1859   001130  848B               	bsf	139,2,c	;volatile
  1860   001132                     
  1861                           ;WaterLevelController.X/src/main.c: 60: 
  1862   001132  0E06               	movlw	6
  1863   001134  6E49               	movwf	(??_main+1)^0,c
  1864   001136  0E13               	movlw	19
  1865   001138  6E48               	movwf	??_main^0,c
  1866   00113A  0EAE               	movlw	174
  1867   00113C                     u1747:
  1868   00113C  2EE8               	decfsz	wreg,f,c
  1869   00113E  D7FE               	bra	u1747
  1870   001140  2E48               	decfsz	??_main^0,f,c
  1871   001142  D7FC               	bra	u1747
  1872   001144  2E49               	decfsz	(??_main+1)^0,f,c
  1873   001146  D7FA               	bra	u1747
  1874   001148                     
  1875                           ;WaterLevelController.X/src/main.c: 61: 
  1876   001148  EC05  F00B         	call	_motor_off	;wreg free
  1877   00114C  8C8A               	bsf	138,6,c	;volatile
  1878   00114E                     
  1879                           ;WaterLevelController.X/src/main.c: 62:     }
  1880   00114E  EC09  F00B         	call	_lcd_clear	;wreg free
  1881   001152                     
  1882                           ;WaterLevelController.X/src/main.c: 63: }
  1883   001152  0E01               	movlw	1
  1884   001154  6E07               	movwf	lcd_gotoxy@y^0,c
  1885   001156  0E01               	movlw	1
  1886   001158  EC6E  F00A         	call	_lcd_gotoxy
  1887   00115C  0E15               	movlw	low STR_2
  1888   00115E  6E08               	movwf	lcd_puts@str^0,c
  1889   001160  ECA0  F00A         	call	_lcd_puts	;wreg free
  1890   001164                     l179:
  1891   001164  EFB2  F008         	goto	l179
  1892   001168                     l2250:
  1893   001168  EC52  F00A         	call	_is_dry_run_triggered	;wreg free
  1894   00116C  0900               	iorlw	0
  1895   00116E  B4D8               	btfsc	status,2,c
  1896   001170  EFBC  F008         	goto	u1681
  1897   001174  EFBE  F008         	goto	u1680
  1898   001178                     u1681:
  1899   001178  EFCC  F008         	goto	l182
  1900   00117C                     u1680:
  1901   00117C  EC0F  F00B         	call	_is_motor_running	;wreg free
  1902   001180  0900               	iorlw	0
  1903   001182  B4D8               	btfsc	status,2,c
  1904   001184  EFC6  F008         	goto	u1691
  1905   001188  EFC8  F008         	goto	u1690
  1906   00118C                     u1691:
  1907   00118C  EFCC  F008         	goto	l182
  1908   001190                     u1690:
  1909   001190  4A56               	infsnz	_dry_run_count^0,f,c
  1910   001192  2A57               	incf	(_dry_run_count+1)^0,f,c
  1911   001194  EF62  F008         	goto	l2216
  1912   001198                     l182:
  1913   001198  948B               	bcf	139,2,c	;volatile
  1914   00119A  EF62  F008         	goto	l2216
  1915   00119E  EFFE  F03F         	goto	start
  1916   0011A2                     __end_of_main:
  1917                           	callstack 0
  1918                           
  1919 ;; *************** function _update_sensor_values *****************
  1920 ;; Defined at:
  1921 ;;		line 13 in file "WaterLevelController.X/src/sensors.c"
  1922 ;; Parameters:    Size  Location     Type
  1923 ;;		None
  1924 ;; Auto vars:     Size  Location     Type
  1925 ;;		None
  1926 ;; Return value:  Size  Location     Type
  1927 ;;                  1    wreg      void 
  1928 ;; Registers used:
  1929 ;;		wreg, status,2, status,0, prodl, prodh, cstack
  1930 ;; Tracked objects:
  1931 ;;		On entry : 0/0
  1932 ;;		On exit  : 0/0
  1933 ;;		Unchanged: 0/0
  1934 ;; Data sizes:     COMRAM   BANK0   BANK1   BANK2   BANK3   BANK4   BANK5
  1935 ;;      Params:         0       0       0       0       0       0       0
  1936 ;;      Locals:         0       0       0       0       0       0       0
  1937 ;;      Temps:          0       0       0       0       0       0       0
  1938 ;;      Totals:         0       0       0       0       0       0       0
  1939 ;;Total ram usage:        0 bytes
  1940 ;; Hardware stack levels used: 1
  1941 ;; Hardware stack levels required when called: 2
  1942 ;; This function calls:
  1943 ;;		_read_adc_voltage
  1944 ;; This function is called by:
  1945 ;;		_main
  1946 ;; This function uses a non-reentrant model
  1947 ;;
  1948                           
  1949                           	psect	text1
  1950   00137C                     __ptext1:
  1951                           	callstack 0
  1952   00137C                     _update_sensor_values:
  1953                           	callstack 28
  1954   00137C                     
  1955                           ;WaterLevelController.X/src/sensors.c: 14:     low_val = read_adc_voltage(7);
  1956   00137C  0E07               	movlw	7
  1957   00137E  EC58  F009         	call	_read_adc_voltage
  1958   001382  C041  F052         	movff	?_read_adc_voltage,_low_val
  1959   001386  C042  F053         	movff	?_read_adc_voltage+1,_low_val+1
  1960   00138A  C043  F054         	movff	?_read_adc_voltage+2,_low_val+2
  1961   00138E  C044  F055         	movff	?_read_adc_voltage+3,_low_val+3
  1962                           
  1963                           ;WaterLevelController.X/src/sensors.c: 15:     high_val = read_adc_voltage(6);
  1964   001392  0E06               	movlw	6
  1965   001394  EC58  F009         	call	_read_adc_voltage
  1966   001398  C041  F04E         	movff	?_read_adc_voltage,_high_val
  1967   00139C  C042  F04F         	movff	?_read_adc_voltage+1,_high_val+1
  1968   0013A0  C043  F050         	movff	?_read_adc_voltage+2,_high_val+2
  1969   0013A4  C044  F051         	movff	?_read_adc_voltage+3,_high_val+3
  1970                           
  1971                           ;WaterLevelController.X/src/sensors.c: 16:     dry_val = read_adc_voltage(5);
  1972   0013A8  0E05               	movlw	5
  1973   0013AA  EC58  F009         	call	_read_adc_voltage
  1974   0013AE  C041  F04A         	movff	?_read_adc_voltage,_dry_val
  1975   0013B2  C042  F04B         	movff	?_read_adc_voltage+1,_dry_val+1
  1976   0013B6  C043  F04C         	movff	?_read_adc_voltage+2,_dry_val+2
  1977   0013BA  C044  F04D         	movff	?_read_adc_voltage+3,_dry_val+3
  1978   0013BE  0012               	return		;funcret
  1979   0013C0                     __end_of_update_sensor_values:
  1980                           	callstack 0
  1981                           
  1982 ;; *************** function _read_adc_voltage *****************
  1983 ;; Defined at:
  1984 ;;		line 40 in file "WaterLevelController.X/src/adc.c"
  1985 ;; Parameters:    Size  Location     Type
  1986 ;;  channel         1    wreg     unsigned char 
  1987 ;; Auto vars:     Size  Location     Type
  1988 ;;  channel         1   70[COMRAM] unsigned char 
  1989 ;;  raw             2   68[COMRAM] unsigned short 
  1990 ;; Return value:  Size  Location     Type
  1991 ;;                  4   64[COMRAM] float 
  1992 ;; Registers used:
  1993 ;;		wreg, status,2, status,0, prodl, prodh, cstack
  1994 ;; Tracked objects:
  1995 ;;		On entry : 0/0
  1996 ;;		On exit  : 0/0
  1997 ;;		Unchanged: 0/0
  1998 ;; Data sizes:     COMRAM   BANK0   BANK1   BANK2   BANK3   BANK4   BANK5
  1999 ;;      Params:         4       0       0       0       0       0       0
  2000 ;;      Locals:         3       0       0       0       0       0       0
  2001 ;;      Temps:          0       0       0       0       0       0       0
  2002 ;;      Totals:         7       0       0       0       0       0       0
  2003 ;;Total ram usage:        7 bytes
  2004 ;; Hardware stack levels used: 1
  2005 ;; Hardware stack levels required when called: 1
  2006 ;; This function calls:
  2007 ;;		___fldiv
  2008 ;;		___flmul
  2009 ;;		___xxtofl
  2010 ;;		_read_adc_raw
  2011 ;; This function is called by:
  2012 ;;		_update_sensor_values
  2013 ;; This function uses a non-reentrant model
  2014 ;;
  2015                           
  2016                           	psect	text2
  2017   0012B0                     __ptext2:
  2018                           	callstack 0
  2019   0012B0                     _read_adc_voltage:
  2020                           	callstack 28
  2021                           
  2022                           ;incstack = 0
  2023                           ;read_adc_voltage@channel stored from wreg
  2024   0012B0  6E47               	movwf	read_adc_voltage@channel^0,c
  2025   0012B2                     
  2026                           ;WaterLevelController.X/src/adc.c: 41:     uint16_t raw = read_adc_raw(channel);
  2027   0012B2  5047               	movf	read_adc_voltage@channel^0,w,c
  2028   0012B4  EC96  F009         	call	_read_adc_raw
  2029   0012B8  C001  F045         	movff	?_read_adc_raw,read_adc_voltage@raw
  2030   0012BC  C002  F046         	movff	?_read_adc_raw+1,read_adc_voltage@raw+1
  2031   0012C0                     
  2032                           ;WaterLevelController.X/src/adc.c: 42:     return (raw * 5.0) / 1023.0;
  2033   0012C0  0E00               	movlw	0
  2034   0012C2  6E13               	movwf	___flmul@a^0,c
  2035   0012C4  0E00               	movlw	0
  2036   0012C6  6E14               	movwf	(___flmul@a+1)^0,c
  2037   0012C8  0EA0               	movlw	160
  2038   0012CA  6E15               	movwf	(___flmul@a+2)^0,c
  2039   0012CC  0E40               	movlw	64
  2040   0012CE  6E16               	movwf	(___flmul@a+3)^0,c
  2041   0012D0  C045  F001         	movff	read_adc_voltage@raw,___xxtofl@val
  2042   0012D4  C046  F002         	movff	read_adc_voltage@raw+1,___xxtofl@val+1
  2043   0012D8  6A03               	clrf	(___xxtofl@val+2)^0,c
  2044   0012DA  6A04               	clrf	(___xxtofl@val+3)^0,c
  2045   0012DC  0E00               	movlw	0
  2046   0012DE  ECF6  F006         	call	___xxtofl
  2047   0012E2  C001  F00F         	movff	?___xxtofl,___flmul@b
  2048   0012E6  C002  F010         	movff	?___xxtofl+1,___flmul@b+1
  2049   0012EA  C003  F011         	movff	?___xxtofl+2,___flmul@b+2
  2050   0012EE  C004  F012         	movff	?___xxtofl+3,___flmul@b+3
  2051   0012F2  EC1B  F003         	call	___flmul	;wreg free
  2052   0012F6  C00F  F028         	movff	?___flmul,___fldiv@b
  2053   0012FA  C010  F029         	movff	?___flmul+1,___fldiv@b+1
  2054   0012FE  C011  F02A         	movff	?___flmul+2,___fldiv@b+2
  2055   001302  C012  F02B         	movff	?___flmul+3,___fldiv@b+3
  2056   001306  0E00               	movlw	0
  2057   001308  6E2C               	movwf	___fldiv@a^0,c
  2058   00130A  0EC0               	movlw	192
  2059   00130C  6E2D               	movwf	(___fldiv@a+1)^0,c
  2060   00130E  0E7F               	movlw	127
  2061   001310  6E2E               	movwf	(___fldiv@a+2)^0,c
  2062   001312  0E44               	movlw	68
  2063   001314  6E2F               	movwf	(___fldiv@a+3)^0,c
  2064   001316  EC2E  F005         	call	___fldiv	;wreg free
  2065   00131A  C028  F041         	movff	?___fldiv,?_read_adc_voltage
  2066   00131E  C029  F042         	movff	?___fldiv+1,?_read_adc_voltage+1
  2067   001322  C02A  F043         	movff	?___fldiv+2,?_read_adc_voltage+2
  2068   001326  C02B  F044         	movff	?___fldiv+3,?_read_adc_voltage+3
  2069   00132A  0012               	return		;funcret
  2070   00132C                     __end_of_read_adc_voltage:
  2071                           	callstack 0
  2072                           
  2073 ;; *************** function _read_adc_raw *****************
  2074 ;; Defined at:
  2075 ;;		line 25 in file "WaterLevelController.X/src/adc.c"
  2076 ;; Parameters:    Size  Location     Type
  2077 ;;  channel         1    wreg     unsigned char 
  2078 ;; Auto vars:     Size  Location     Type
  2079 ;;  channel         1    4[COMRAM] unsigned char 
  2080 ;; Return value:  Size  Location     Type
  2081 ;;                  2    0[COMRAM] unsigned short 
  2082 ;; Registers used:
  2083 ;;		wreg, status,2, status,0
  2084 ;; Tracked objects:
  2085 ;;		On entry : 0/0
  2086 ;;		On exit  : 0/0
  2087 ;;		Unchanged: 0/0
  2088 ;; Data sizes:     COMRAM   BANK0   BANK1   BANK2   BANK3   BANK4   BANK5
  2089 ;;      Params:         2       0       0       0       0       0       0
  2090 ;;      Locals:         1       0       0       0       0       0       0
  2091 ;;      Temps:          2       0       0       0       0       0       0
  2092 ;;      Totals:         5       0       0       0       0       0       0
  2093 ;;Total ram usage:        5 bytes
  2094 ;; Hardware stack levels used: 1
  2095 ;; This function calls:
  2096 ;;		Nothing
  2097 ;; This function is called by:
  2098 ;;		_read_adc_voltage
  2099 ;; This function uses a non-reentrant model
  2100 ;;
  2101                           
  2102                           	psect	text3
  2103   00132C                     __ptext3:
  2104                           	callstack 0
  2105   00132C                     _read_adc_raw:
  2106                           	callstack 28
  2107                           
  2108                           ;incstack = 0
  2109                           ;read_adc_raw@channel stored from wreg
  2110   00132C  6E05               	movwf	read_adc_raw@channel^0,c
  2111   00132E                     
  2112                           ;WaterLevelController.X/src/adc.c: 26:     if (channel > 7) return 0;
  2113   00132E  0E07               	movlw	7
  2114   001330  6405               	cpfsgt	read_adc_raw@channel^0,c
  2115   001332  EF9D  F009         	goto	u941
  2116   001336  EF9F  F009         	goto	u940
  2117   00133A                     u941:
  2118   00133A  EFA5  F009         	goto	l1786
  2119   00133E                     u940:
  2120   00133E  0E00               	movlw	0
  2121   001340  6E02               	movwf	(?_read_adc_raw+1)^0,c
  2122   001342  0E00               	movlw	0
  2123   001344  6E01               	movwf	?_read_adc_raw^0,c
  2124   001346  EFBD  F009         	goto	l23
  2125   00134A                     l1786:
  2126                           
  2127                           ;WaterLevelController.X/src/adc.c: 29:     ADCON0 &= 0b11000011;
  2128   00134A  0EC3               	movlw	195
  2129   00134C  16C2               	andwf	194,f,c	;volatile
  2130                           
  2131                           ;WaterLevelController.X/src/adc.c: 30:     ADCON0 |= (channel << 2);
  2132   00134E  4405               	rlncf	read_adc_raw@channel^0,w,c	;volatile
  2133   001350  46E8               	rlncf	wreg,f,c
  2134   001352  0BFC               	andlw	252
  2135   001354  12C2               	iorwf	194,f,c	;volatile
  2136   001356                     
  2137                           ;WaterLevelController.X/src/adc.c: 32:     _delay((unsigned long)((10)*(8000000/4000000.
      +                          0)));
  2138   001356  0E06               	movlw	6
  2139   001358                     u1757:
  2140   001358  2EE8               	decfsz	wreg,f,c
  2141   00135A  D7FE               	bra	u1757
  2142   00135C  D000               	nop2	
  2143   00135E                     
  2144                           ;WaterLevelController.X/src/adc.c: 33:     ADCON0bits.GO = 1;
  2145   00135E  82C2               	bsf	194,1,c	;volatile
  2146   001360                     l24:
  2147   001360  B2C2               	btfsc	194,1,c	;volatile
  2148   001362  EFB5  F009         	goto	u951
  2149   001366  EFB7  F009         	goto	u950
  2150   00136A                     u951:
  2151   00136A  EFB0  F009         	goto	l24
  2152   00136E                     u950:
  2153   00136E                     
  2154                           ;WaterLevelController.X/src/adc.c: 37:     return ((uint16_t)ADRESH << 8) | ADRESL;
  2155   00136E  50C4               	movf	196,w,c	;volatile
  2156   001370  6E03               	movwf	??_read_adc_raw^0,c
  2157   001372  50C3               	movf	195,w,c	;volatile
  2158   001374  6E01               	movwf	?_read_adc_raw^0,c
  2159   001376  C003  F002         	movff	??_read_adc_raw,?_read_adc_raw+1
  2160   00137A                     l23:
  2161   00137A  0012               	return		;funcret
  2162   00137C                     __end_of_read_adc_raw:
  2163                           	callstack 0
  2164                           
  2165 ;; *************** function ___xxtofl *****************
  2166 ;; Defined at:
  2167 ;;		line 10 in file "C:\Program Files\Microchip\xc8\v3.00\pic\sources\c99\common\xxtofl.c"
  2168 ;; Parameters:    Size  Location     Type
  2169 ;;  sign            1    wreg     unsigned char 
  2170 ;;  val             4    0[COMRAM] long 
  2171 ;; Auto vars:     Size  Location     Type
  2172 ;;  sign            1    8[COMRAM] unsigned char 
  2173 ;;  arg             4   10[COMRAM] unsigned long 
  2174 ;;  exp             1    9[COMRAM] unsigned char 
  2175 ;; Return value:  Size  Location     Type
  2176 ;;                  4    0[COMRAM] unsigned char 
  2177 ;; Registers used:
  2178 ;;		wreg, status,2, status,0
  2179 ;; Tracked objects:
  2180 ;;		On entry : 0/0
  2181 ;;		On exit  : 0/0
  2182 ;;		Unchanged: 0/0
  2183 ;; Data sizes:     COMRAM   BANK0   BANK1   BANK2   BANK3   BANK4   BANK5
  2184 ;;      Params:         4       0       0       0       0       0       0
  2185 ;;      Locals:         6       0       0       0       0       0       0
  2186 ;;      Temps:          4       0       0       0       0       0       0
  2187 ;;      Totals:        14       0       0       0       0       0       0
  2188 ;;Total ram usage:       14 bytes
  2189 ;; Hardware stack levels used: 1
  2190 ;; This function calls:
  2191 ;;		Nothing
  2192 ;; This function is called by:
  2193 ;;		_read_adc_voltage
  2194 ;; This function uses a non-reentrant model
  2195 ;;
  2196                           
  2197                           	psect	text4
  2198   000DEC                     __ptext4:
  2199                           	callstack 0
  2200   000DEC                     ___xxtofl:
  2201                           	callstack 28
  2202                           
  2203                           ;incstack = 0
  2204                           ;___xxtofl@sign stored from wreg
  2205   000DEC  6E09               	movwf	___xxtofl@sign^0,c
  2206   000DEE  5009               	movf	___xxtofl@sign^0,w,c
  2207   000DF0  B4D8               	btfsc	status,2,c
  2208   000DF2  EFFD  F006         	goto	u1401
  2209   000DF6  EFFF  F006         	goto	u1400
  2210   000DFA                     u1401:
  2211   000DFA  EF21  F007         	goto	l950
  2212   000DFE                     u1400:
  2213   000DFE  BE04               	btfsc	(___xxtofl@val+3)^0,7,c
  2214   000E00  EF06  F007         	goto	u1410
  2215   000E04  EF04  F007         	goto	u1411
  2216   000E08                     u1411:
  2217   000E08  EF21  F007         	goto	l950
  2218   000E0C                     u1410:
  2219   000E0C  C001  F005         	movff	___xxtofl@val,??___xxtofl
  2220   000E10  C002  F006         	movff	___xxtofl@val+1,??___xxtofl+1
  2221   000E14  C003  F007         	movff	___xxtofl@val+2,??___xxtofl+2
  2222   000E18  C004  F008         	movff	___xxtofl@val+3,??___xxtofl+3
  2223   000E1C  1E05               	comf	??___xxtofl^0,f,c
  2224   000E1E  1E06               	comf	(??___xxtofl+1)^0,f,c
  2225   000E20  1E07               	comf	(??___xxtofl+2)^0,f,c
  2226   000E22  1E08               	comf	(??___xxtofl+3)^0,f,c
  2227   000E24  2A05               	incf	??___xxtofl^0,f,c
  2228   000E26  0E00               	movlw	0
  2229   000E28  2206               	addwfc	(??___xxtofl+1)^0,f,c
  2230   000E2A  2207               	addwfc	(??___xxtofl+2)^0,f,c
  2231   000E2C  2208               	addwfc	(??___xxtofl+3)^0,f,c
  2232   000E2E  C005  F00B         	movff	??___xxtofl,___xxtofl@arg
  2233   000E32  C006  F00C         	movff	??___xxtofl+1,___xxtofl@arg+1
  2234   000E36  C007  F00D         	movff	??___xxtofl+2,___xxtofl@arg+2
  2235   000E3A  C008  F00E         	movff	??___xxtofl+3,___xxtofl@arg+3
  2236   000E3E  EF29  F007         	goto	l2080
  2237   000E42                     l950:
  2238   000E42  C001  F00B         	movff	___xxtofl@val,___xxtofl@arg
  2239   000E46  C002  F00C         	movff	___xxtofl@val+1,___xxtofl@arg+1
  2240   000E4A  C003  F00D         	movff	___xxtofl@val+2,___xxtofl@arg+2
  2241   000E4E  C004  F00E         	movff	___xxtofl@val+3,___xxtofl@arg+3
  2242   000E52                     l2080:
  2243   000E52  5001               	movf	___xxtofl@val^0,w,c
  2244   000E54  1002               	iorwf	(___xxtofl@val+1)^0,w,c
  2245   000E56  1003               	iorwf	(___xxtofl@val+2)^0,w,c
  2246   000E58  1004               	iorwf	(___xxtofl@val+3)^0,w,c
  2247   000E5A  A4D8               	btfss	status,2,c
  2248   000E5C  EF32  F007         	goto	u1421
  2249   000E60  EF34  F007         	goto	u1420
  2250   000E64                     u1421:
  2251   000E64  EF3E  F007         	goto	l2086
  2252   000E68                     u1420:
  2253   000E68  0E00               	movlw	0
  2254   000E6A  6E01               	movwf	?___xxtofl^0,c
  2255   000E6C  0E00               	movlw	0
  2256   000E6E  6E02               	movwf	(?___xxtofl+1)^0,c
  2257   000E70  0E00               	movlw	0
  2258   000E72  6E03               	movwf	(?___xxtofl+2)^0,c
  2259   000E74  0E00               	movlw	0
  2260   000E76  6E04               	movwf	(?___xxtofl+3)^0,c
  2261   000E78  EFCF  F007         	goto	l953
  2262   000E7C                     l2086:
  2263   000E7C  0E96               	movlw	150
  2264   000E7E  6E0A               	movwf	___xxtofl@exp^0,c
  2265   000E80  EF48  F007         	goto	l2090
  2266   000E84                     l2088:
  2267   000E84  2A0A               	incf	___xxtofl@exp^0,f,c
  2268   000E86  90D8               	bcf	status,0,c
  2269   000E88  320E               	rrcf	(___xxtofl@arg+3)^0,f,c
  2270   000E8A  320D               	rrcf	(___xxtofl@arg+2)^0,f,c
  2271   000E8C  320C               	rrcf	(___xxtofl@arg+1)^0,f,c
  2272   000E8E  320B               	rrcf	___xxtofl@arg^0,f,c
  2273   000E90                     l2090:
  2274   000E90  0E00               	movlw	0
  2275   000E92  140B               	andwf	___xxtofl@arg^0,w,c
  2276   000E94  6E05               	movwf	??___xxtofl^0,c
  2277   000E96  0E00               	movlw	0
  2278   000E98  140C               	andwf	(___xxtofl@arg+1)^0,w,c
  2279   000E9A  6E06               	movwf	(??___xxtofl+1)^0,c
  2280   000E9C  0E00               	movlw	0
  2281   000E9E  140D               	andwf	(___xxtofl@arg+2)^0,w,c
  2282   000EA0  6E07               	movwf	(??___xxtofl+2)^0,c
  2283   000EA2  0EFE               	movlw	254
  2284   000EA4  140E               	andwf	(___xxtofl@arg+3)^0,w,c
  2285   000EA6  6E08               	movwf	(??___xxtofl+3)^0,c
  2286   000EA8  5005               	movf	??___xxtofl^0,w,c
  2287   000EAA  1006               	iorwf	(??___xxtofl+1)^0,w,c
  2288   000EAC  1007               	iorwf	(??___xxtofl+2)^0,w,c
  2289   000EAE  1008               	iorwf	(??___xxtofl+3)^0,w,c
  2290   000EB0  A4D8               	btfss	status,2,c
  2291   000EB2  EF5D  F007         	goto	u1431
  2292   000EB6  EF5F  F007         	goto	u1430
  2293   000EBA                     u1431:
  2294   000EBA  EF42  F007         	goto	l2088
  2295   000EBE                     u1430:
  2296   000EBE  EF6D  F007         	goto	l957
  2297   000EC2                     l2092:
  2298   000EC2  2A0A               	incf	___xxtofl@exp^0,f,c
  2299   000EC4  0E01               	movlw	1
  2300   000EC6  260B               	addwf	___xxtofl@arg^0,f,c
  2301   000EC8  0E00               	movlw	0
  2302   000ECA  220C               	addwfc	(___xxtofl@arg+1)^0,f,c
  2303   000ECC  220D               	addwfc	(___xxtofl@arg+2)^0,f,c
  2304   000ECE  220E               	addwfc	(___xxtofl@arg+3)^0,f,c
  2305   000ED0  90D8               	bcf	status,0,c
  2306   000ED2  320E               	rrcf	(___xxtofl@arg+3)^0,f,c
  2307   000ED4  320D               	rrcf	(___xxtofl@arg+2)^0,f,c
  2308   000ED6  320C               	rrcf	(___xxtofl@arg+1)^0,f,c
  2309   000ED8  320B               	rrcf	___xxtofl@arg^0,f,c
  2310   000EDA                     l957:
  2311   000EDA  0E00               	movlw	0
  2312   000EDC  140B               	andwf	___xxtofl@arg^0,w,c
  2313   000EDE  6E05               	movwf	??___xxtofl^0,c
  2314   000EE0  0E00               	movlw	0
  2315   000EE2  140C               	andwf	(___xxtofl@arg+1)^0,w,c
  2316   000EE4  6E06               	movwf	(??___xxtofl+1)^0,c
  2317   000EE6  0E00               	movlw	0
  2318   000EE8  140D               	andwf	(___xxtofl@arg+2)^0,w,c
  2319   000EEA  6E07               	movwf	(??___xxtofl+2)^0,c
  2320   000EEC  0EFF               	movlw	255
  2321   000EEE  140E               	andwf	(___xxtofl@arg+3)^0,w,c
  2322   000EF0  6E08               	movwf	(??___xxtofl+3)^0,c
  2323   000EF2  5005               	movf	??___xxtofl^0,w,c
  2324   000EF4  1006               	iorwf	(??___xxtofl+1)^0,w,c
  2325   000EF6  1007               	iorwf	(??___xxtofl+2)^0,w,c
  2326   000EF8  1008               	iorwf	(??___xxtofl+3)^0,w,c
  2327   000EFA  A4D8               	btfss	status,2,c
  2328   000EFC  EF82  F007         	goto	u1441
  2329   000F00  EF84  F007         	goto	u1440
  2330   000F04                     u1441:
  2331   000F04  EF61  F007         	goto	l2092
  2332   000F08                     u1440:
  2333   000F08  EF8C  F007         	goto	l2100
  2334   000F0C                     l2098:
  2335   000F0C  060A               	decf	___xxtofl@exp^0,f,c
  2336   000F0E  90D8               	bcf	status,0,c
  2337   000F10  360B               	rlcf	___xxtofl@arg^0,f,c
  2338   000F12  360C               	rlcf	(___xxtofl@arg+1)^0,f,c
  2339   000F14  360D               	rlcf	(___xxtofl@arg+2)^0,f,c
  2340   000F16  360E               	rlcf	(___xxtofl@arg+3)^0,f,c
  2341   000F18                     l2100:
  2342   000F18  BE0D               	btfsc	(___xxtofl@arg+2)^0,7,c
  2343   000F1A  EF91  F007         	goto	u1451
  2344   000F1E  EF93  F007         	goto	u1450
  2345   000F22                     u1451:
  2346   000F22  EF9B  F007         	goto	l964
  2347   000F26                     u1450:
  2348   000F26  0E02               	movlw	2
  2349   000F28  600A               	cpfslt	___xxtofl@exp^0,c
  2350   000F2A  EF99  F007         	goto	u1461
  2351   000F2E  EF9B  F007         	goto	u1460
  2352   000F32                     u1461:
  2353   000F32  EF86  F007         	goto	l2098
  2354   000F36                     u1460:
  2355   000F36                     l964:
  2356   000F36  B00A               	btfsc	___xxtofl@exp^0,0,c
  2357   000F38  EFA0  F007         	goto	u1471
  2358   000F3C  EFA2  F007         	goto	u1470
  2359   000F40                     u1471:
  2360   000F40  EFA3  F007         	goto	l2106
  2361   000F44                     u1470:
  2362   000F44  9E0D               	bcf	(___xxtofl@arg+2)^0,7,c
  2363   000F46                     l2106:
  2364   000F46  90D8               	bcf	status,0,c
  2365   000F48  320A               	rrcf	___xxtofl@exp^0,f,c
  2366   000F4A  C00A  F005         	movff	___xxtofl@exp,??___xxtofl
  2367   000F4E  6A06               	clrf	(??___xxtofl+1)^0,c
  2368   000F50  6A07               	clrf	(??___xxtofl+2)^0,c
  2369   000F52  6A08               	clrf	(??___xxtofl+3)^0,c
  2370   000F54  C005  F008         	movff	??___xxtofl,??___xxtofl+3
  2371   000F58  6A07               	clrf	(??___xxtofl+2)^0,c
  2372   000F5A  6A06               	clrf	(??___xxtofl+1)^0,c
  2373   000F5C  6A05               	clrf	??___xxtofl^0,c
  2374   000F5E  5005               	movf	??___xxtofl^0,w,c
  2375   000F60  120B               	iorwf	___xxtofl@arg^0,f,c
  2376   000F62  5006               	movf	(??___xxtofl+1)^0,w,c
  2377   000F64  120C               	iorwf	(___xxtofl@arg+1)^0,f,c
  2378   000F66  5007               	movf	(??___xxtofl+2)^0,w,c
  2379   000F68  120D               	iorwf	(___xxtofl@arg+2)^0,f,c
  2380   000F6A  5008               	movf	(??___xxtofl+3)^0,w,c
  2381   000F6C  120E               	iorwf	(___xxtofl@arg+3)^0,f,c
  2382   000F6E  5009               	movf	___xxtofl@sign^0,w,c
  2383   000F70  B4D8               	btfsc	status,2,c
  2384   000F72  EFBD  F007         	goto	u1481
  2385   000F76  EFBF  F007         	goto	u1480
  2386   000F7A                     u1481:
  2387   000F7A  EFC7  F007         	goto	l2116
  2388   000F7E                     u1480:
  2389   000F7E  BE04               	btfsc	(___xxtofl@val+3)^0,7,c
  2390   000F80  EFC6  F007         	goto	u1490
  2391   000F84  EFC4  F007         	goto	u1491
  2392   000F88                     u1491:
  2393   000F88  EFC7  F007         	goto	l2116
  2394   000F8C                     u1490:
  2395   000F8C  8E0E               	bsf	(___xxtofl@arg+3)^0,7,c
  2396   000F8E                     l2116:
  2397   000F8E  C00B  F001         	movff	___xxtofl@arg,?___xxtofl
  2398   000F92  C00C  F002         	movff	___xxtofl@arg+1,?___xxtofl+1
  2399   000F96  C00D  F003         	movff	___xxtofl@arg+2,?___xxtofl+2
  2400   000F9A  C00E  F004         	movff	___xxtofl@arg+3,?___xxtofl+3
  2401   000F9E                     l953:
  2402   000F9E  0012               	return		;funcret
  2403   000FA0                     __end_of___xxtofl:
  2404                           	callstack 0
  2405                           
  2406 ;; *************** function ___flmul *****************
  2407 ;; Defined at:
  2408 ;;		line 8 in file "C:\Program Files\Microchip\xc8\v3.00\pic\sources\c99\common\sprcmul.c"
  2409 ;; Parameters:    Size  Location     Type
  2410 ;;  b               4   14[COMRAM] unsigned char 
  2411 ;;  a               4   18[COMRAM] unsigned char 
  2412 ;; Auto vars:     Size  Location     Type
  2413 ;;  prod            4   33[COMRAM] struct .
  2414 ;;  grs             4   27[COMRAM] unsigned long 
  2415 ;;  temp            2   37[COMRAM] struct .
  2416 ;;  bexp            1   32[COMRAM] unsigned char 
  2417 ;;  aexp            1   31[COMRAM] unsigned char 
  2418 ;;  sign            1   26[COMRAM] unsigned char 
  2419 ;; Return value:  Size  Location     Type
  2420 ;;                  4   14[COMRAM] unsigned char 
  2421 ;; Registers used:
  2422 ;;		wreg, status,2, status,0, prodl, prodh
  2423 ;; Tracked objects:
  2424 ;;		On entry : 0/0
  2425 ;;		On exit  : 0/0
  2426 ;;		Unchanged: 0/0
  2427 ;; Data sizes:     COMRAM   BANK0   BANK1   BANK2   BANK3   BANK4   BANK5
  2428 ;;      Params:         8       0       0       0       0       0       0
  2429 ;;      Locals:        13       0       0       0       0       0       0
  2430 ;;      Temps:          4       0       0       0       0       0       0
  2431 ;;      Totals:        25       0       0       0       0       0       0
  2432 ;;Total ram usage:       25 bytes
  2433 ;; Hardware stack levels used: 1
  2434 ;; This function calls:
  2435 ;;		Nothing
  2436 ;; This function is called by:
  2437 ;;		_read_adc_voltage
  2438 ;; This function uses a non-reentrant model
  2439 ;;
  2440                           
  2441                           	psect	text5
  2442   000636                     __ptext5:
  2443                           	callstack 0
  2444   000636                     ___flmul:
  2445                           	callstack 28
  2446   000636  5012               	movf	(___flmul@b+3)^0,w,c
  2447   000638  0B80               	andlw	128
  2448   00063A  6E1B               	movwf	___flmul@sign^0,c
  2449   00063C  5012               	movf	(___flmul@b+3)^0,w,c
  2450   00063E  2412               	addwf	(___flmul@b+3)^0,w,c
  2451   000640  6E21               	movwf	___flmul@bexp^0,c
  2452   000642  AE11               	btfss	(___flmul@b+2)^0,7,c
  2453   000644  EF26  F003         	goto	u1211
  2454   000648  EF28  F003         	goto	u1210
  2455   00064C                     u1211:
  2456   00064C  EF29  F003         	goto	l1952
  2457   000650                     u1210:
  2458   000650  8021               	bsf	___flmul@bexp^0,0,c
  2459   000652                     l1952:
  2460   000652  5021               	movf	___flmul@bexp^0,w,c
  2461   000654  B4D8               	btfsc	status,2,c
  2462   000656  EF2F  F003         	goto	u1221
  2463   00065A  EF31  F003         	goto	u1220
  2464   00065E                     u1221:
  2465   00065E  EF44  F003         	goto	l1960
  2466   000662                     u1220:
  2467   000662  2821               	incf	___flmul@bexp^0,w,c
  2468   000664  A4D8               	btfss	status,2,c
  2469   000666  EF37  F003         	goto	u1231
  2470   00066A  EF39  F003         	goto	u1230
  2471   00066E                     u1231:
  2472   00066E  EF41  F003         	goto	l1958
  2473   000672                     u1230:
  2474   000672  0E00               	movlw	0
  2475   000674  6E0F               	movwf	___flmul@b^0,c
  2476   000676  0E00               	movlw	0
  2477   000678  6E10               	movwf	(___flmul@b+1)^0,c
  2478   00067A  0E00               	movlw	0
  2479   00067C  6E11               	movwf	(___flmul@b+2)^0,c
  2480   00067E  0E00               	movlw	0
  2481   000680  6E12               	movwf	(___flmul@b+3)^0,c
  2482   000682                     l1958:
  2483   000682  8E11               	bsf	(___flmul@b+2)^0,7,c
  2484   000684  EF4C  F003         	goto	l1962
  2485   000688                     l1960:
  2486   000688  0E00               	movlw	0
  2487   00068A  6E0F               	movwf	___flmul@b^0,c
  2488   00068C  0E00               	movlw	0
  2489   00068E  6E10               	movwf	(___flmul@b+1)^0,c
  2490   000690  0E00               	movlw	0
  2491   000692  6E11               	movwf	(___flmul@b+2)^0,c
  2492   000694  0E00               	movlw	0
  2493   000696  6E12               	movwf	(___flmul@b+3)^0,c
  2494   000698                     l1962:
  2495   000698  5016               	movf	(___flmul@a+3)^0,w,c
  2496   00069A  0B80               	andlw	128
  2497   00069C  1A1B               	xorwf	___flmul@sign^0,f,c
  2498   00069E  5016               	movf	(___flmul@a+3)^0,w,c
  2499   0006A0  2416               	addwf	(___flmul@a+3)^0,w,c
  2500   0006A2  6E20               	movwf	___flmul@aexp^0,c
  2501   0006A4  AE15               	btfss	(___flmul@a+2)^0,7,c
  2502   0006A6  EF57  F003         	goto	u1241
  2503   0006AA  EF59  F003         	goto	u1240
  2504   0006AE                     u1241:
  2505   0006AE  EF5A  F003         	goto	l1970
  2506   0006B2                     u1240:
  2507   0006B2  8020               	bsf	___flmul@aexp^0,0,c
  2508   0006B4                     l1970:
  2509   0006B4  5020               	movf	___flmul@aexp^0,w,c
  2510   0006B6  B4D8               	btfsc	status,2,c
  2511   0006B8  EF60  F003         	goto	u1251
  2512   0006BC  EF62  F003         	goto	u1250
  2513   0006C0                     u1251:
  2514   0006C0  EF75  F003         	goto	l1978
  2515   0006C4                     u1250:
  2516   0006C4  2820               	incf	___flmul@aexp^0,w,c
  2517   0006C6  A4D8               	btfss	status,2,c
  2518   0006C8  EF68  F003         	goto	u1261
  2519   0006CC  EF6A  F003         	goto	u1260
  2520   0006D0                     u1261:
  2521   0006D0  EF72  F003         	goto	l1976
  2522   0006D4                     u1260:
  2523   0006D4  0E00               	movlw	0
  2524   0006D6  6E13               	movwf	___flmul@a^0,c
  2525   0006D8  0E00               	movlw	0
  2526   0006DA  6E14               	movwf	(___flmul@a+1)^0,c
  2527   0006DC  0E00               	movlw	0
  2528   0006DE  6E15               	movwf	(___flmul@a+2)^0,c
  2529   0006E0  0E00               	movlw	0
  2530   0006E2  6E16               	movwf	(___flmul@a+3)^0,c
  2531   0006E4                     l1976:
  2532   0006E4  8E15               	bsf	(___flmul@a+2)^0,7,c
  2533   0006E6  EF7D  F003         	goto	l909
  2534   0006EA                     l1978:
  2535   0006EA  0E00               	movlw	0
  2536   0006EC  6E13               	movwf	___flmul@a^0,c
  2537   0006EE  0E00               	movlw	0
  2538   0006F0  6E14               	movwf	(___flmul@a+1)^0,c
  2539   0006F2  0E00               	movlw	0
  2540   0006F4  6E15               	movwf	(___flmul@a+2)^0,c
  2541   0006F6  0E00               	movlw	0
  2542   0006F8  6E16               	movwf	(___flmul@a+3)^0,c
  2543   0006FA                     l909:
  2544   0006FA  5020               	movf	___flmul@aexp^0,w,c
  2545   0006FC  B4D8               	btfsc	status,2,c
  2546   0006FE  EF83  F003         	goto	u1271
  2547   000702  EF85  F003         	goto	u1270
  2548   000706                     u1271:
  2549   000706  EF8D  F003         	goto	l1982
  2550   00070A                     u1270:
  2551   00070A  5021               	movf	___flmul@bexp^0,w,c
  2552   00070C  A4D8               	btfss	status,2,c
  2553   00070E  EF8B  F003         	goto	u1281
  2554   000712  EF8D  F003         	goto	u1280
  2555   000716                     u1281:
  2556   000716  EF97  F003         	goto	l1986
  2557   00071A                     u1280:
  2558   00071A                     l1982:
  2559   00071A  0E00               	movlw	0
  2560   00071C  6E0F               	movwf	?___flmul^0,c
  2561   00071E  0E00               	movlw	0
  2562   000720  6E10               	movwf	(?___flmul+1)^0,c
  2563   000722  0E00               	movlw	0
  2564   000724  6E11               	movwf	(?___flmul+2)^0,c
  2565   000726  0E00               	movlw	0
  2566   000728  6E12               	movwf	(?___flmul+3)^0,c
  2567   00072A  EF2D  F005         	goto	l913
  2568   00072E                     l1986:
  2569   00072E  5015               	movf	(___flmul@a+2)^0,w,c
  2570   000730  020F               	mulwf	___flmul@b^0,c
  2571   000732  CFF3 F026          	movff	prodl,___flmul@temp
  2572   000736  CFF4 F027          	movff	prodh,___flmul@temp+1
  2573   00073A  5026               	movf	___flmul@temp^0,w,c
  2574   00073C  6E1C               	movwf	___flmul@grs^0,c
  2575   00073E  6A1D               	clrf	(___flmul@grs+1)^0,c
  2576   000740  6A1E               	clrf	(___flmul@grs+2)^0,c
  2577   000742  6A1F               	clrf	(___flmul@grs+3)^0,c
  2578   000744  5027               	movf	(___flmul@temp+1)^0,w,c
  2579   000746  6E22               	movwf	___flmul@prod^0,c
  2580   000748  6A23               	clrf	(___flmul@prod+1)^0,c
  2581   00074A  6A24               	clrf	(___flmul@prod+2)^0,c
  2582   00074C  6A25               	clrf	(___flmul@prod+3)^0,c
  2583   00074E  5014               	movf	(___flmul@a+1)^0,w,c
  2584   000750  0210               	mulwf	(___flmul@b+1)^0,c
  2585   000752  CFF3 F026          	movff	prodl,___flmul@temp
  2586   000756  CFF4 F027          	movff	prodh,___flmul@temp+1
  2587   00075A  5026               	movf	___flmul@temp^0,w,c
  2588   00075C  261C               	addwf	___flmul@grs^0,f,c
  2589   00075E  0E00               	movlw	0
  2590   000760  221D               	addwfc	(___flmul@grs+1)^0,f,c
  2591   000762  221E               	addwfc	(___flmul@grs+2)^0,f,c
  2592   000764  221F               	addwfc	(___flmul@grs+3)^0,f,c
  2593   000766  5027               	movf	(___flmul@temp+1)^0,w,c
  2594   000768  2622               	addwf	___flmul@prod^0,f,c
  2595   00076A  0E00               	movlw	0
  2596   00076C  2223               	addwfc	(___flmul@prod+1)^0,f,c
  2597   00076E  2224               	addwfc	(___flmul@prod+2)^0,f,c
  2598   000770  2225               	addwfc	(___flmul@prod+3)^0,f,c
  2599   000772  5013               	movf	___flmul@a^0,w,c
  2600   000774  0211               	mulwf	(___flmul@b+2)^0,c
  2601   000776  CFF3 F026          	movff	prodl,___flmul@temp
  2602   00077A  CFF4 F027          	movff	prodh,___flmul@temp+1
  2603   00077E  5026               	movf	___flmul@temp^0,w,c
  2604   000780  261C               	addwf	___flmul@grs^0,f,c
  2605   000782  0E00               	movlw	0
  2606   000784  221D               	addwfc	(___flmul@grs+1)^0,f,c
  2607   000786  221E               	addwfc	(___flmul@grs+2)^0,f,c
  2608   000788  221F               	addwfc	(___flmul@grs+3)^0,f,c
  2609   00078A  5027               	movf	(___flmul@temp+1)^0,w,c
  2610   00078C  2622               	addwf	___flmul@prod^0,f,c
  2611   00078E  0E00               	movlw	0
  2612   000790  2223               	addwfc	(___flmul@prod+1)^0,f,c
  2613   000792  2224               	addwfc	(___flmul@prod+2)^0,f,c
  2614   000794  2225               	addwfc	(___flmul@prod+3)^0,f,c
  2615   000796  C01E  F01F         	movff	___flmul@grs+2,___flmul@grs+3
  2616   00079A  C01D  F01E         	movff	___flmul@grs+1,___flmul@grs+2
  2617   00079E  C01C  F01D         	movff	___flmul@grs,___flmul@grs+1
  2618   0007A2  6A1C               	clrf	___flmul@grs^0,c
  2619   0007A4  5013               	movf	___flmul@a^0,w,c
  2620   0007A6  0210               	mulwf	(___flmul@b+1)^0,c
  2621   0007A8  CFF3 F026          	movff	prodl,___flmul@temp
  2622   0007AC  CFF4 F027          	movff	prodh,___flmul@temp+1
  2623   0007B0  5026               	movf	___flmul@temp^0,w,c
  2624   0007B2  261C               	addwf	___flmul@grs^0,f,c
  2625   0007B4  5027               	movf	(___flmul@temp+1)^0,w,c
  2626   0007B6  221D               	addwfc	(___flmul@grs+1)^0,f,c
  2627   0007B8  0E00               	movlw	0
  2628   0007BA  221E               	addwfc	(___flmul@grs+2)^0,f,c
  2629   0007BC  0E00               	movlw	0
  2630   0007BE  221F               	addwfc	(___flmul@grs+3)^0,f,c
  2631   0007C0  5014               	movf	(___flmul@a+1)^0,w,c
  2632   0007C2  020F               	mulwf	___flmul@b^0,c
  2633   0007C4  CFF3 F026          	movff	prodl,___flmul@temp
  2634   0007C8  CFF4 F027          	movff	prodh,___flmul@temp+1
  2635   0007CC  5026               	movf	___flmul@temp^0,w,c
  2636   0007CE  261C               	addwf	___flmul@grs^0,f,c
  2637   0007D0  5027               	movf	(___flmul@temp+1)^0,w,c
  2638   0007D2  221D               	addwfc	(___flmul@grs+1)^0,f,c
  2639   0007D4  0E00               	movlw	0
  2640   0007D6  221E               	addwfc	(___flmul@grs+2)^0,f,c
  2641   0007D8  0E00               	movlw	0
  2642   0007DA  221F               	addwfc	(___flmul@grs+3)^0,f,c
  2643   0007DC  C01E  F01F         	movff	___flmul@grs+2,___flmul@grs+3
  2644   0007E0  C01D  F01E         	movff	___flmul@grs+1,___flmul@grs+2
  2645   0007E4  C01C  F01D         	movff	___flmul@grs,___flmul@grs+1
  2646   0007E8  6A1C               	clrf	___flmul@grs^0,c
  2647   0007EA  5013               	movf	___flmul@a^0,w,c
  2648   0007EC  020F               	mulwf	___flmul@b^0,c
  2649   0007EE  CFF3 F026          	movff	prodl,___flmul@temp
  2650   0007F2  CFF4 F027          	movff	prodh,___flmul@temp+1
  2651   0007F6  5026               	movf	___flmul@temp^0,w,c
  2652   0007F8  261C               	addwf	___flmul@grs^0,f,c
  2653   0007FA  5027               	movf	(___flmul@temp+1)^0,w,c
  2654   0007FC  221D               	addwfc	(___flmul@grs+1)^0,f,c
  2655   0007FE  0E00               	movlw	0
  2656   000800  221E               	addwfc	(___flmul@grs+2)^0,f,c
  2657   000802  0E00               	movlw	0
  2658   000804  221F               	addwfc	(___flmul@grs+3)^0,f,c
  2659   000806  5015               	movf	(___flmul@a+2)^0,w,c
  2660   000808  0210               	mulwf	(___flmul@b+1)^0,c
  2661   00080A  CFF3 F026          	movff	prodl,___flmul@temp
  2662   00080E  CFF4 F027          	movff	prodh,___flmul@temp+1
  2663   000812  5026               	movf	___flmul@temp^0,w,c
  2664   000814  2622               	addwf	___flmul@prod^0,f,c
  2665   000816  5027               	movf	(___flmul@temp+1)^0,w,c
  2666   000818  2223               	addwfc	(___flmul@prod+1)^0,f,c
  2667   00081A  0E00               	movlw	0
  2668   00081C  2224               	addwfc	(___flmul@prod+2)^0,f,c
  2669   00081E  0E00               	movlw	0
  2670   000820  2225               	addwfc	(___flmul@prod+3)^0,f,c
  2671   000822  5014               	movf	(___flmul@a+1)^0,w,c
  2672   000824  0211               	mulwf	(___flmul@b+2)^0,c
  2673   000826  CFF3 F026          	movff	prodl,___flmul@temp
  2674   00082A  CFF4 F027          	movff	prodh,___flmul@temp+1
  2675   00082E  5026               	movf	___flmul@temp^0,w,c
  2676   000830  2622               	addwf	___flmul@prod^0,f,c
  2677   000832  5027               	movf	(___flmul@temp+1)^0,w,c
  2678   000834  2223               	addwfc	(___flmul@prod+1)^0,f,c
  2679   000836  0E00               	movlw	0
  2680   000838  2224               	addwfc	(___flmul@prod+2)^0,f,c
  2681   00083A  0E00               	movlw	0
  2682   00083C  2225               	addwfc	(___flmul@prod+3)^0,f,c
  2683   00083E  5015               	movf	(___flmul@a+2)^0,w,c
  2684   000840  0211               	mulwf	(___flmul@b+2)^0,c
  2685   000842  CFF3 F026          	movff	prodl,___flmul@temp
  2686   000846  CFF4 F027          	movff	prodh,___flmul@temp+1
  2687   00084A  5026               	movf	___flmul@temp^0,w,c
  2688   00084C  6E17               	movwf	??___flmul^0,c
  2689   00084E  5027               	movf	(___flmul@temp+1)^0,w,c
  2690   000850  6E18               	movwf	(??___flmul+1)^0,c
  2691   000852  6A19               	clrf	(??___flmul+2)^0,c
  2692   000854  6A1A               	clrf	(??___flmul+3)^0,c
  2693   000856  C019  F01A         	movff	??___flmul+2,??___flmul+3
  2694   00085A  C018  F019         	movff	??___flmul+1,??___flmul+2
  2695   00085E  C017  F018         	movff	??___flmul,??___flmul+1
  2696   000862  6A17               	clrf	??___flmul^0,c
  2697   000864  5017               	movf	??___flmul^0,w,c
  2698   000866  2622               	addwf	___flmul@prod^0,f,c
  2699   000868  5018               	movf	(??___flmul+1)^0,w,c
  2700   00086A  2223               	addwfc	(___flmul@prod+1)^0,f,c
  2701   00086C  5019               	movf	(??___flmul+2)^0,w,c
  2702   00086E  2224               	addwfc	(___flmul@prod+2)^0,f,c
  2703   000870  501A               	movf	(??___flmul+3)^0,w,c
  2704   000872  2225               	addwfc	(___flmul@prod+3)^0,f,c
  2705   000874  C01C  F017         	movff	___flmul@grs,??___flmul
  2706   000878  C01D  F018         	movff	___flmul@grs+1,??___flmul+1
  2707   00087C  C01E  F019         	movff	___flmul@grs+2,??___flmul+2
  2708   000880  C01F  F01A         	movff	___flmul@grs+3,??___flmul+3
  2709   000884  0E19               	movlw	25
  2710   000886  EF4A  F004         	goto	u1290
  2711   00088A                     u1295:
  2712   00088A  90D8               	bcf	status,0,c
  2713   00088C  321A               	rrcf	(??___flmul+3)^0,f,c
  2714   00088E  3219               	rrcf	(??___flmul+2)^0,f,c
  2715   000890  3218               	rrcf	(??___flmul+1)^0,f,c
  2716   000892  3217               	rrcf	??___flmul^0,f,c
  2717   000894                     u1290:
  2718   000894  2EE8               	decfsz	wreg,f,c
  2719   000896  EF45  F004         	goto	u1295
  2720   00089A  5017               	movf	??___flmul^0,w,c
  2721   00089C  2622               	addwf	___flmul@prod^0,f,c
  2722   00089E  5018               	movf	(??___flmul+1)^0,w,c
  2723   0008A0  2223               	addwfc	(___flmul@prod+1)^0,f,c
  2724   0008A2  5019               	movf	(??___flmul+2)^0,w,c
  2725   0008A4  2224               	addwfc	(___flmul@prod+2)^0,f,c
  2726   0008A6  501A               	movf	(??___flmul+3)^0,w,c
  2727   0008A8  2225               	addwfc	(___flmul@prod+3)^0,f,c
  2728   0008AA  C01E  F01F         	movff	___flmul@grs+2,___flmul@grs+3
  2729   0008AE  C01D  F01E         	movff	___flmul@grs+1,___flmul@grs+2
  2730   0008B2  C01C  F01D         	movff	___flmul@grs,___flmul@grs+1
  2731   0008B6  6A1C               	clrf	___flmul@grs^0,c
  2732   0008B8  5020               	movf	___flmul@aexp^0,w,c
  2733   0008BA  C021  F017         	movff	___flmul@bexp,??___flmul
  2734   0008BE  6A18               	clrf	(??___flmul+1)^0,c
  2735   0008C0  2617               	addwf	??___flmul^0,f,c
  2736   0008C2  0E00               	movlw	0
  2737   0008C4  2218               	addwfc	(??___flmul+1)^0,f,c
  2738   0008C6  0E82               	movlw	130
  2739   0008C8  2417               	addwf	??___flmul^0,w,c
  2740   0008CA  6E26               	movwf	___flmul@temp^0,c
  2741   0008CC  0EFF               	movlw	255
  2742   0008CE  2018               	addwfc	(??___flmul+1)^0,w,c
  2743   0008D0  6E27               	movwf	(___flmul@temp+1)^0,c
  2744   0008D2  EF80  F004         	goto	l2034
  2745   0008D6                     l2028:
  2746   0008D6  90D8               	bcf	status,0,c
  2747   0008D8  3622               	rlcf	___flmul@prod^0,f,c
  2748   0008DA  3623               	rlcf	(___flmul@prod+1)^0,f,c
  2749   0008DC  3624               	rlcf	(___flmul@prod+2)^0,f,c
  2750   0008DE  3625               	rlcf	(___flmul@prod+3)^0,f,c
  2751   0008E0  AE1F               	btfss	(___flmul@grs+3)^0,7,c
  2752   0008E2  EF75  F004         	goto	u1301
  2753   0008E6  EF77  F004         	goto	u1300
  2754   0008EA                     u1301:
  2755   0008EA  EF78  F004         	goto	l916
  2756   0008EE                     u1300:
  2757   0008EE  8022               	bsf	___flmul@prod^0,0,c
  2758   0008F0                     l916:
  2759   0008F0  90D8               	bcf	status,0,c
  2760   0008F2  361C               	rlcf	___flmul@grs^0,f,c
  2761   0008F4  361D               	rlcf	(___flmul@grs+1)^0,f,c
  2762   0008F6  361E               	rlcf	(___flmul@grs+2)^0,f,c
  2763   0008F8  361F               	rlcf	(___flmul@grs+3)^0,f,c
  2764   0008FA  0626               	decf	___flmul@temp^0,f,c
  2765   0008FC  A0D8               	btfss	status,0,c
  2766   0008FE  0627               	decf	(___flmul@temp+1)^0,f,c
  2767   000900                     l2034:
  2768   000900  AE24               	btfss	(___flmul@prod+2)^0,7,c
  2769   000902  EF85  F004         	goto	u1311
  2770   000906  EF87  F004         	goto	u1310
  2771   00090A                     u1311:
  2772   00090A  EF6B  F004         	goto	l2028
  2773   00090E                     u1310:
  2774   00090E  6A20               	clrf	___flmul@aexp^0,c
  2775   000910  AE1F               	btfss	(___flmul@grs+3)^0,7,c
  2776   000912  EF8D  F004         	goto	u1321
  2777   000916  EF8F  F004         	goto	u1320
  2778   00091A                     u1321:
  2779   00091A  EFB3  F004         	goto	l918
  2780   00091E                     u1320:
  2781   00091E  0EFF               	movlw	255
  2782   000920  141C               	andwf	___flmul@grs^0,w,c
  2783   000922  6E17               	movwf	??___flmul^0,c
  2784   000924  0EFF               	movlw	255
  2785   000926  141D               	andwf	(___flmul@grs+1)^0,w,c
  2786   000928  6E18               	movwf	(??___flmul+1)^0,c
  2787   00092A  0EFF               	movlw	255
  2788   00092C  141E               	andwf	(___flmul@grs+2)^0,w,c
  2789   00092E  6E19               	movwf	(??___flmul+2)^0,c
  2790   000930  0E7F               	movlw	127
  2791   000932  141F               	andwf	(___flmul@grs+3)^0,w,c
  2792   000934  6E1A               	movwf	(??___flmul+3)^0,c
  2793   000936  5017               	movf	??___flmul^0,w,c
  2794   000938  1018               	iorwf	(??___flmul+1)^0,w,c
  2795   00093A  1019               	iorwf	(??___flmul+2)^0,w,c
  2796   00093C  101A               	iorwf	(??___flmul+3)^0,w,c
  2797   00093E  B4D8               	btfsc	status,2,c
  2798   000940  EFA4  F004         	goto	u1331
  2799   000944  EFA6  F004         	goto	u1330
  2800   000948                     u1331:
  2801   000948  EFAA  F004         	goto	l919
  2802   00094C                     u1330:
  2803   00094C                     l2038:
  2804   00094C  0E01               	movlw	1
  2805   00094E  6E20               	movwf	___flmul@aexp^0,c
  2806   000950  EFB3  F004         	goto	l918
  2807   000954                     l919:
  2808   000954  A022               	btfss	___flmul@prod^0,0,c
  2809   000956  EFAF  F004         	goto	u1341
  2810   00095A  EFB1  F004         	goto	u1340
  2811   00095E                     u1341:
  2812   00095E  EFB3  F004         	goto	l918
  2813   000962                     u1340:
  2814   000962  EFA6  F004         	goto	l2038
  2815   000966                     l918:
  2816   000966  5020               	movf	___flmul@aexp^0,w,c
  2817   000968  B4D8               	btfsc	status,2,c
  2818   00096A  EFB9  F004         	goto	u1351
  2819   00096E  EFBB  F004         	goto	u1350
  2820   000972                     u1351:
  2821   000972  EFDF  F004         	goto	l2050
  2822   000976                     u1350:
  2823   000976  0E01               	movlw	1
  2824   000978  2622               	addwf	___flmul@prod^0,f,c
  2825   00097A  0E00               	movlw	0
  2826   00097C  2223               	addwfc	(___flmul@prod+1)^0,f,c
  2827   00097E  2224               	addwfc	(___flmul@prod+2)^0,f,c
  2828   000980  2225               	addwfc	(___flmul@prod+3)^0,f,c
  2829   000982  A025               	btfss	(___flmul@prod+3)^0,0,c
  2830   000984  EFC6  F004         	goto	u1361
  2831   000988  EFC8  F004         	goto	u1360
  2832   00098C                     u1361:
  2833   00098C  EFDF  F004         	goto	l2050
  2834   000990                     u1360:
  2835   000990  C022  F017         	movff	___flmul@prod,??___flmul
  2836   000994  C023  F018         	movff	___flmul@prod+1,??___flmul+1
  2837   000998  C024  F019         	movff	___flmul@prod+2,??___flmul+2
  2838   00099C  C025  F01A         	movff	___flmul@prod+3,??___flmul+3
  2839   0009A0  341A               	rlcf	(??___flmul+3)^0,w,c
  2840   0009A2  321A               	rrcf	(??___flmul+3)^0,f,c
  2841   0009A4  3219               	rrcf	(??___flmul+2)^0,f,c
  2842   0009A6  3218               	rrcf	(??___flmul+1)^0,f,c
  2843   0009A8  3217               	rrcf	??___flmul^0,f,c
  2844   0009AA  C017  F022         	movff	??___flmul,___flmul@prod
  2845   0009AE  C018  F023         	movff	??___flmul+1,___flmul@prod+1
  2846   0009B2  C019  F024         	movff	??___flmul+2,___flmul@prod+2
  2847   0009B6  C01A  F025         	movff	??___flmul+3,___flmul@prod+3
  2848   0009BA  4A26               	infsnz	___flmul@temp^0,f,c
  2849   0009BC  2A27               	incf	(___flmul@temp+1)^0,f,c
  2850   0009BE                     l2050:
  2851   0009BE  BE27               	btfsc	(___flmul@temp+1)^0,7,c
  2852   0009C0  EFEA  F004         	goto	u1371
  2853   0009C4  5027               	movf	(___flmul@temp+1)^0,w,c
  2854   0009C6  E108               	bnz	u1370
  2855   0009C8  2826               	incf	___flmul@temp^0,w,c
  2856   0009CA  A0D8               	btfss	status,0,c
  2857   0009CC  EFEA  F004         	goto	u1371
  2858   0009D0  EFEC  F004         	goto	u1370
  2859   0009D4                     u1371:
  2860   0009D4  EFF6  F004         	goto	l2054
  2861   0009D8                     u1370:
  2862   0009D8  0E00               	movlw	0
  2863   0009DA  6E22               	movwf	___flmul@prod^0,c
  2864   0009DC  0E00               	movlw	0
  2865   0009DE  6E23               	movwf	(___flmul@prod+1)^0,c
  2866   0009E0  0E80               	movlw	128
  2867   0009E2  6E24               	movwf	(___flmul@prod+2)^0,c
  2868   0009E4  0E7F               	movlw	127
  2869   0009E6  6E25               	movwf	(___flmul@prod+3)^0,c
  2870   0009E8  EF23  F005         	goto	l2068
  2871   0009EC                     l2054:
  2872   0009EC  BE27               	btfsc	(___flmul@temp+1)^0,7,c
  2873   0009EE  EF03  F005         	goto	u1380
  2874   0009F2  5027               	movf	(___flmul@temp+1)^0,w,c
  2875   0009F4  E106               	bnz	u1381
  2876   0009F6  0426               	decf	___flmul@temp^0,w,c
  2877   0009F8  B0D8               	btfsc	status,0,c
  2878   0009FA  EF01  F005         	goto	u1381
  2879   0009FE  EF03  F005         	goto	u1380
  2880   000A02                     u1381:
  2881   000A02  EF0E  F005         	goto	l926
  2882   000A06                     u1380:
  2883   000A06  0E00               	movlw	0
  2884   000A08  6E22               	movwf	___flmul@prod^0,c
  2885   000A0A  0E00               	movlw	0
  2886   000A0C  6E23               	movwf	(___flmul@prod+1)^0,c
  2887   000A0E  0E00               	movlw	0
  2888   000A10  6E24               	movwf	(___flmul@prod+2)^0,c
  2889   000A12  0E00               	movlw	0
  2890   000A14  6E25               	movwf	(___flmul@prod+3)^0,c
  2891   000A16  6A1B               	clrf	___flmul@sign^0,c
  2892   000A18  EF23  F005         	goto	l2068
  2893   000A1C                     l926:
  2894   000A1C  C026  F021         	movff	___flmul@temp,___flmul@bexp
  2895   000A20  0EFF               	movlw	255
  2896   000A22  1622               	andwf	___flmul@prod^0,f,c
  2897   000A24  0EFF               	movlw	255
  2898   000A26  1623               	andwf	(___flmul@prod+1)^0,f,c
  2899   000A28  0E7F               	movlw	127
  2900   000A2A  1624               	andwf	(___flmul@prod+2)^0,f,c
  2901   000A2C  0E00               	movlw	0
  2902   000A2E  1625               	andwf	(___flmul@prod+3)^0,f,c
  2903   000A30  A021               	btfss	___flmul@bexp^0,0,c
  2904   000A32  EF1D  F005         	goto	u1391
  2905   000A36  EF1F  F005         	goto	u1390
  2906   000A3A                     u1391:
  2907   000A3A  EF20  F005         	goto	l2066
  2908   000A3E                     u1390:
  2909   000A3E  8E24               	bsf	(___flmul@prod+2)^0,7,c
  2910   000A40                     l2066:
  2911   000A40  90D8               	bcf	status,0,c
  2912   000A42  3021               	rrcf	___flmul@bexp^0,w,c
  2913   000A44  6E25               	movwf	(___flmul@prod+3)^0,c
  2914   000A46                     l2068:
  2915   000A46  501B               	movf	___flmul@sign^0,w,c
  2916   000A48  1225               	iorwf	(___flmul@prod+3)^0,f,c
  2917   000A4A  C022  F00F         	movff	___flmul@prod,?___flmul
  2918   000A4E  C023  F010         	movff	___flmul@prod+1,?___flmul+1
  2919   000A52  C024  F011         	movff	___flmul@prod+2,?___flmul+2
  2920   000A56  C025  F012         	movff	___flmul@prod+3,?___flmul+3
  2921   000A5A                     l913:
  2922   000A5A  0012               	return		;funcret
  2923   000A5C                     __end_of___flmul:
  2924                           	callstack 0
  2925                           
  2926 ;; *************** function ___fldiv *****************
  2927 ;; Defined at:
  2928 ;;		line 11 in file "C:\Program Files\Microchip\xc8\v3.00\pic\sources\c99\common\sprcdiv.c"
  2929 ;; Parameters:    Size  Location     Type
  2930 ;;  b               4   39[COMRAM] unsigned char 
  2931 ;;  a               4   43[COMRAM] unsigned char 
  2932 ;; Auto vars:     Size  Location     Type
  2933 ;;  grs             4   58[COMRAM] unsigned long 
  2934 ;;  rem             4   51[COMRAM] unsigned long 
  2935 ;;  new_exp         2   56[COMRAM] short 
  2936 ;;  aexp            1   63[COMRAM] unsigned char 
  2937 ;;  bexp            1   62[COMRAM] unsigned char 
  2938 ;;  sign            1   55[COMRAM] unsigned char 
  2939 ;; Return value:  Size  Location     Type
  2940 ;;                  4   39[COMRAM] unsigned char 
  2941 ;; Registers used:
  2942 ;;		wreg, status,2, status,0
  2943 ;; Tracked objects:
  2944 ;;		On entry : 0/0
  2945 ;;		On exit  : 0/0
  2946 ;;		Unchanged: 0/0
  2947 ;; Data sizes:     COMRAM   BANK0   BANK1   BANK2   BANK3   BANK4   BANK5
  2948 ;;      Params:         8       0       0       0       0       0       0
  2949 ;;      Locals:        13       0       0       0       0       0       0
  2950 ;;      Temps:          4       0       0       0       0       0       0
  2951 ;;      Totals:        25       0       0       0       0       0       0
  2952 ;;Total ram usage:       25 bytes
  2953 ;; Hardware stack levels used: 1
  2954 ;; This function calls:
  2955 ;;		Nothing
  2956 ;; This function is called by:
  2957 ;;		_read_adc_voltage
  2958 ;; This function uses a non-reentrant model
  2959 ;;
  2960                           
  2961                           	psect	text6
  2962   000A5C                     __ptext6:
  2963                           	callstack 0
  2964   000A5C                     ___fldiv:
  2965                           	callstack 28
  2966   000A5C  502B               	movf	(___fldiv@b+3)^0,w,c
  2967   000A5E  0B80               	andlw	128
  2968   000A60  6E38               	movwf	___fldiv@sign^0,c
  2969   000A62  502B               	movf	(___fldiv@b+3)^0,w,c
  2970   000A64  242B               	addwf	(___fldiv@b+3)^0,w,c
  2971   000A66  6E3F               	movwf	___fldiv@bexp^0,c
  2972   000A68  AE2A               	btfss	(___fldiv@b+2)^0,7,c
  2973   000A6A  EF39  F005         	goto	u981
  2974   000A6E  EF3B  F005         	goto	u980
  2975   000A72                     u981:
  2976   000A72  EF3C  F005         	goto	l1816
  2977   000A76                     u980:
  2978   000A76  803F               	bsf	___fldiv@bexp^0,0,c
  2979   000A78                     l1816:
  2980   000A78  503F               	movf	___fldiv@bexp^0,w,c
  2981   000A7A  B4D8               	btfsc	status,2,c
  2982   000A7C  EF42  F005         	goto	u991
  2983   000A80  EF44  F005         	goto	u990
  2984   000A84                     u991:
  2985   000A84  EF58  F005         	goto	l1826
  2986   000A88                     u990:
  2987   000A88  283F               	incf	___fldiv@bexp^0,w,c
  2988   000A8A  A4D8               	btfss	status,2,c
  2989   000A8C  EF4A  F005         	goto	u1001
  2990   000A90  EF4C  F005         	goto	u1000
  2991   000A94                     u1001:
  2992   000A94  EF54  F005         	goto	l1822
  2993   000A98                     u1000:
  2994   000A98  0E00               	movlw	0
  2995   000A9A  6E28               	movwf	___fldiv@b^0,c
  2996   000A9C  0E00               	movlw	0
  2997   000A9E  6E29               	movwf	(___fldiv@b+1)^0,c
  2998   000AA0  0E00               	movlw	0
  2999   000AA2  6E2A               	movwf	(___fldiv@b+2)^0,c
  3000   000AA4  0E00               	movlw	0
  3001   000AA6  6E2B               	movwf	(___fldiv@b+3)^0,c
  3002   000AA8                     l1822:
  3003   000AA8  8E2A               	bsf	(___fldiv@b+2)^0,7,c
  3004   000AAA  6A2B               	clrf	(___fldiv@b+3)^0,c
  3005   000AAC  EF60  F005         	goto	l1828
  3006   000AB0                     l1826:
  3007   000AB0  0E00               	movlw	0
  3008   000AB2  6E28               	movwf	___fldiv@b^0,c
  3009   000AB4  0E00               	movlw	0
  3010   000AB6  6E29               	movwf	(___fldiv@b+1)^0,c
  3011   000AB8  0E00               	movlw	0
  3012   000ABA  6E2A               	movwf	(___fldiv@b+2)^0,c
  3013   000ABC  0E00               	movlw	0
  3014   000ABE  6E2B               	movwf	(___fldiv@b+3)^0,c
  3015   000AC0                     l1828:
  3016   000AC0  502F               	movf	(___fldiv@a+3)^0,w,c
  3017   000AC2  0B80               	andlw	128
  3018   000AC4  1A38               	xorwf	___fldiv@sign^0,f,c
  3019   000AC6  502F               	movf	(___fldiv@a+3)^0,w,c
  3020   000AC8  242F               	addwf	(___fldiv@a+3)^0,w,c
  3021   000ACA  6E40               	movwf	___fldiv@aexp^0,c
  3022   000ACC  AE2E               	btfss	(___fldiv@a+2)^0,7,c
  3023   000ACE  EF6B  F005         	goto	u1011
  3024   000AD2  EF6D  F005         	goto	u1010
  3025   000AD6                     u1011:
  3026   000AD6  EF6E  F005         	goto	l1836
  3027   000ADA                     u1010:
  3028   000ADA  8040               	bsf	___fldiv@aexp^0,0,c
  3029   000ADC                     l1836:
  3030   000ADC  5040               	movf	___fldiv@aexp^0,w,c
  3031   000ADE  B4D8               	btfsc	status,2,c
  3032   000AE0  EF74  F005         	goto	u1021
  3033   000AE4  EF76  F005         	goto	u1020
  3034   000AE8                     u1021:
  3035   000AE8  EF8A  F005         	goto	l1846
  3036   000AEC                     u1020:
  3037   000AEC  2840               	incf	___fldiv@aexp^0,w,c
  3038   000AEE  A4D8               	btfss	status,2,c
  3039   000AF0  EF7C  F005         	goto	u1031
  3040   000AF4  EF7E  F005         	goto	u1030
  3041   000AF8                     u1031:
  3042   000AF8  EF86  F005         	goto	l1842
  3043   000AFC                     u1030:
  3044   000AFC  0E00               	movlw	0
  3045   000AFE  6E2C               	movwf	___fldiv@a^0,c
  3046   000B00  0E00               	movlw	0
  3047   000B02  6E2D               	movwf	(___fldiv@a+1)^0,c
  3048   000B04  0E00               	movlw	0
  3049   000B06  6E2E               	movwf	(___fldiv@a+2)^0,c
  3050   000B08  0E00               	movlw	0
  3051   000B0A  6E2F               	movwf	(___fldiv@a+3)^0,c
  3052   000B0C                     l1842:
  3053   000B0C  8E2E               	bsf	(___fldiv@a+2)^0,7,c
  3054   000B0E  6A2F               	clrf	(___fldiv@a+3)^0,c
  3055   000B10  EF92  F005         	goto	l1848
  3056   000B14                     l1846:
  3057   000B14  0E00               	movlw	0
  3058   000B16  6E2C               	movwf	___fldiv@a^0,c
  3059   000B18  0E00               	movlw	0
  3060   000B1A  6E2D               	movwf	(___fldiv@a+1)^0,c
  3061   000B1C  0E00               	movlw	0
  3062   000B1E  6E2E               	movwf	(___fldiv@a+2)^0,c
  3063   000B20  0E00               	movlw	0
  3064   000B22  6E2F               	movwf	(___fldiv@a+3)^0,c
  3065   000B24                     l1848:
  3066   000B24  502C               	movf	___fldiv@a^0,w,c
  3067   000B26  102D               	iorwf	(___fldiv@a+1)^0,w,c
  3068   000B28  102E               	iorwf	(___fldiv@a+2)^0,w,c
  3069   000B2A  102F               	iorwf	(___fldiv@a+3)^0,w,c
  3070   000B2C  A4D8               	btfss	status,2,c
  3071   000B2E  EF9B  F005         	goto	u1041
  3072   000B32  EF9D  F005         	goto	u1040
  3073   000B36                     u1041:
  3074   000B36  EFB5  F005         	goto	l1860
  3075   000B3A                     u1040:
  3076   000B3A  0E00               	movlw	0
  3077   000B3C  6E28               	movwf	___fldiv@b^0,c
  3078   000B3E  0E00               	movlw	0
  3079   000B40  6E29               	movwf	(___fldiv@b+1)^0,c
  3080   000B42  0E00               	movlw	0
  3081   000B44  6E2A               	movwf	(___fldiv@b+2)^0,c
  3082   000B46  0E00               	movlw	0
  3083   000B48  6E2B               	movwf	(___fldiv@b+3)^0,c
  3084   000B4A  0E80               	movlw	128
  3085   000B4C  122A               	iorwf	(___fldiv@b+2)^0,f,c
  3086   000B4E  0E7F               	movlw	127
  3087   000B50  122B               	iorwf	(___fldiv@b+3)^0,f,c
  3088   000B52                     l1854:
  3089   000B52  5038               	movf	___fldiv@sign^0,w,c
  3090   000B54  122B               	iorwf	(___fldiv@b+3)^0,f,c
  3091   000B56  C028  F028         	movff	___fldiv@b,?___fldiv
  3092   000B5A  C029  F029         	movff	___fldiv@b+1,?___fldiv+1
  3093   000B5E  C02A  F02A         	movff	___fldiv@b+2,?___fldiv+2
  3094   000B62  C02B  F02B         	movff	___fldiv@b+3,?___fldiv+3
  3095   000B66  EFF5  F006         	goto	l877
  3096   000B6A                     l1860:
  3097   000B6A  503F               	movf	___fldiv@bexp^0,w,c
  3098   000B6C  A4D8               	btfss	status,2,c
  3099   000B6E  EFBB  F005         	goto	u1051
  3100   000B72  EFBD  F005         	goto	u1050
  3101   000B76                     u1051:
  3102   000B76  EFC7  F005         	goto	l1868
  3103   000B7A                     u1050:
  3104   000B7A  0E00               	movlw	0
  3105   000B7C  6E28               	movwf	?___fldiv^0,c
  3106   000B7E  0E00               	movlw	0
  3107   000B80  6E29               	movwf	(?___fldiv+1)^0,c
  3108   000B82  0E00               	movlw	0
  3109   000B84  6E2A               	movwf	(?___fldiv+2)^0,c
  3110   000B86  0E00               	movlw	0
  3111   000B88  6E2B               	movwf	(?___fldiv+3)^0,c
  3112   000B8A  EFF5  F006         	goto	l877
  3113   000B8E                     l1868:
  3114   000B8E  5040               	movf	___fldiv@aexp^0,w,c
  3115   000B90  C03F  F030         	movff	___fldiv@bexp,??___fldiv
  3116   000B94  6A31               	clrf	(??___fldiv+1)^0,c
  3117   000B96  5E30               	subwf	??___fldiv^0,f,c
  3118   000B98  0E00               	movlw	0
  3119   000B9A  5A31               	subwfb	(??___fldiv+1)^0,f,c
  3120   000B9C  0E7F               	movlw	127
  3121   000B9E  2430               	addwf	??___fldiv^0,w,c
  3122   000BA0  6E39               	movwf	___fldiv@new_exp^0,c
  3123   000BA2  0E00               	movlw	0
  3124   000BA4  2031               	addwfc	(??___fldiv+1)^0,w,c
  3125   000BA6  6E3A               	movwf	(___fldiv@new_exp+1)^0,c
  3126   000BA8  C028  F034         	movff	___fldiv@b,___fldiv@rem
  3127   000BAC  C029  F035         	movff	___fldiv@b+1,___fldiv@rem+1
  3128   000BB0  C02A  F036         	movff	___fldiv@b+2,___fldiv@rem+2
  3129   000BB4  C02B  F037         	movff	___fldiv@b+3,___fldiv@rem+3
  3130   000BB8  0E00               	movlw	0
  3131   000BBA  6E28               	movwf	___fldiv@b^0,c
  3132   000BBC  0E00               	movlw	0
  3133   000BBE  6E29               	movwf	(___fldiv@b+1)^0,c
  3134   000BC0  0E00               	movlw	0
  3135   000BC2  6E2A               	movwf	(___fldiv@b+2)^0,c
  3136   000BC4  0E00               	movlw	0
  3137   000BC6  6E2B               	movwf	(___fldiv@b+3)^0,c
  3138   000BC8  0E00               	movlw	0
  3139   000BCA  6E3B               	movwf	___fldiv@grs^0,c
  3140   000BCC  0E00               	movlw	0
  3141   000BCE  6E3C               	movwf	(___fldiv@grs+1)^0,c
  3142   000BD0  0E00               	movlw	0
  3143   000BD2  6E3D               	movwf	(___fldiv@grs+2)^0,c
  3144   000BD4  0E00               	movlw	0
  3145   000BD6  6E3E               	movwf	(___fldiv@grs+3)^0,c
  3146   000BD8  6A40               	clrf	___fldiv@aexp^0,c
  3147   000BDA  EF27  F006         	goto	l879
  3148   000BDE                     l1878:
  3149   000BDE  5040               	movf	___fldiv@aexp^0,w,c
  3150   000BE0  B4D8               	btfsc	status,2,c
  3151   000BE2  EFF5  F005         	goto	u1061
  3152   000BE6  EFF7  F005         	goto	u1060
  3153   000BEA                     u1061:
  3154   000BEA  EF0E  F006         	goto	l1886
  3155   000BEE                     u1060:
  3156   000BEE  90D8               	bcf	status,0,c
  3157   000BF0  3634               	rlcf	___fldiv@rem^0,f,c
  3158   000BF2  3635               	rlcf	(___fldiv@rem+1)^0,f,c
  3159   000BF4  3636               	rlcf	(___fldiv@rem+2)^0,f,c
  3160   000BF6  3637               	rlcf	(___fldiv@rem+3)^0,f,c
  3161   000BF8  90D8               	bcf	status,0,c
  3162   000BFA  3628               	rlcf	___fldiv@b^0,f,c
  3163   000BFC  3629               	rlcf	(___fldiv@b+1)^0,f,c
  3164   000BFE  362A               	rlcf	(___fldiv@b+2)^0,f,c
  3165   000C00  362B               	rlcf	(___fldiv@b+3)^0,f,c
  3166   000C02  AE3E               	btfss	(___fldiv@grs+3)^0,7,c
  3167   000C04  EF06  F006         	goto	u1071
  3168   000C08  EF08  F006         	goto	u1070
  3169   000C0C                     u1071:
  3170   000C0C  EF09  F006         	goto	l882
  3171   000C10                     u1070:
  3172   000C10  8028               	bsf	___fldiv@b^0,0,c
  3173   000C12                     l882:
  3174   000C12  90D8               	bcf	status,0,c
  3175   000C14  363B               	rlcf	___fldiv@grs^0,f,c
  3176   000C16  363C               	rlcf	(___fldiv@grs+1)^0,f,c
  3177   000C18  363D               	rlcf	(___fldiv@grs+2)^0,f,c
  3178   000C1A  363E               	rlcf	(___fldiv@grs+3)^0,f,c
  3179   000C1C                     l1886:
  3180   000C1C  502C               	movf	___fldiv@a^0,w,c
  3181   000C1E  5C34               	subwf	___fldiv@rem^0,w,c
  3182   000C20  502D               	movf	(___fldiv@a+1)^0,w,c
  3183   000C22  5835               	subwfb	(___fldiv@rem+1)^0,w,c
  3184   000C24  502E               	movf	(___fldiv@a+2)^0,w,c
  3185   000C26  5836               	subwfb	(___fldiv@rem+2)^0,w,c
  3186   000C28  502F               	movf	(___fldiv@a+3)^0,w,c
  3187   000C2A  5837               	subwfb	(___fldiv@rem+3)^0,w,c
  3188   000C2C  A0D8               	btfss	status,0,c
  3189   000C2E  EF1B  F006         	goto	u1081
  3190   000C32  EF1D  F006         	goto	u1080
  3191   000C36                     u1081:
  3192   000C36  EF26  F006         	goto	l1892
  3193   000C3A                     u1080:
  3194   000C3A  8C3E               	bsf	(___fldiv@grs+3)^0,6,c
  3195   000C3C  502C               	movf	___fldiv@a^0,w,c
  3196   000C3E  5E34               	subwf	___fldiv@rem^0,f,c
  3197   000C40  502D               	movf	(___fldiv@a+1)^0,w,c
  3198   000C42  5A35               	subwfb	(___fldiv@rem+1)^0,f,c
  3199   000C44  502E               	movf	(___fldiv@a+2)^0,w,c
  3200   000C46  5A36               	subwfb	(___fldiv@rem+2)^0,f,c
  3201   000C48  502F               	movf	(___fldiv@a+3)^0,w,c
  3202   000C4A  5A37               	subwfb	(___fldiv@rem+3)^0,f,c
  3203   000C4C                     l1892:
  3204   000C4C  2A40               	incf	___fldiv@aexp^0,f,c
  3205   000C4E                     l879:
  3206   000C4E  0E19               	movlw	25
  3207   000C50  6440               	cpfsgt	___fldiv@aexp^0,c
  3208   000C52  EF2D  F006         	goto	u1091
  3209   000C56  EF2F  F006         	goto	u1090
  3210   000C5A                     u1091:
  3211   000C5A  EFEF  F005         	goto	l1878
  3212   000C5E                     u1090:
  3213   000C5E  5034               	movf	___fldiv@rem^0,w,c
  3214   000C60  1035               	iorwf	(___fldiv@rem+1)^0,w,c
  3215   000C62  1036               	iorwf	(___fldiv@rem+2)^0,w,c
  3216   000C64  1037               	iorwf	(___fldiv@rem+3)^0,w,c
  3217   000C66  B4D8               	btfsc	status,2,c
  3218   000C68  EF38  F006         	goto	u1101
  3219   000C6C  EF3A  F006         	goto	u1100
  3220   000C70                     u1101:
  3221   000C70  EF52  F006         	goto	l1904
  3222   000C74                     u1100:
  3223   000C74  803B               	bsf	___fldiv@grs^0,0,c
  3224   000C76  EF52  F006         	goto	l1904
  3225   000C7A                     l1898:
  3226   000C7A  90D8               	bcf	status,0,c
  3227   000C7C  3628               	rlcf	___fldiv@b^0,f,c
  3228   000C7E  3629               	rlcf	(___fldiv@b+1)^0,f,c
  3229   000C80  362A               	rlcf	(___fldiv@b+2)^0,f,c
  3230   000C82  362B               	rlcf	(___fldiv@b+3)^0,f,c
  3231   000C84  AE3E               	btfss	(___fldiv@grs+3)^0,7,c
  3232   000C86  EF47  F006         	goto	u1111
  3233   000C8A  EF49  F006         	goto	u1110
  3234   000C8E                     u1111:
  3235   000C8E  EF4A  F006         	goto	l888
  3236   000C92                     u1110:
  3237   000C92  8028               	bsf	___fldiv@b^0,0,c
  3238   000C94                     l888:
  3239   000C94  90D8               	bcf	status,0,c
  3240   000C96  363B               	rlcf	___fldiv@grs^0,f,c
  3241   000C98  363C               	rlcf	(___fldiv@grs+1)^0,f,c
  3242   000C9A  363D               	rlcf	(___fldiv@grs+2)^0,f,c
  3243   000C9C  363E               	rlcf	(___fldiv@grs+3)^0,f,c
  3244   000C9E  0639               	decf	___fldiv@new_exp^0,f,c
  3245   000CA0  A0D8               	btfss	status,0,c
  3246   000CA2  063A               	decf	(___fldiv@new_exp+1)^0,f,c
  3247   000CA4                     l1904:
  3248   000CA4  AE2A               	btfss	(___fldiv@b+2)^0,7,c
  3249   000CA6  EF57  F006         	goto	u1121
  3250   000CAA  EF59  F006         	goto	u1120
  3251   000CAE                     u1121:
  3252   000CAE  EF3D  F006         	goto	l1898
  3253   000CB2                     u1120:
  3254   000CB2  6A40               	clrf	___fldiv@aexp^0,c
  3255   000CB4  AE3E               	btfss	(___fldiv@grs+3)^0,7,c
  3256   000CB6  EF5F  F006         	goto	u1131
  3257   000CBA  EF61  F006         	goto	u1130
  3258   000CBE                     u1131:
  3259   000CBE  EF85  F006         	goto	l890
  3260   000CC2                     u1130:
  3261   000CC2  0EFF               	movlw	255
  3262   000CC4  143B               	andwf	___fldiv@grs^0,w,c
  3263   000CC6  6E30               	movwf	??___fldiv^0,c
  3264   000CC8  0EFF               	movlw	255
  3265   000CCA  143C               	andwf	(___fldiv@grs+1)^0,w,c
  3266   000CCC  6E31               	movwf	(??___fldiv+1)^0,c
  3267   000CCE  0EFF               	movlw	255
  3268   000CD0  143D               	andwf	(___fldiv@grs+2)^0,w,c
  3269   000CD2  6E32               	movwf	(??___fldiv+2)^0,c
  3270   000CD4  0E7F               	movlw	127
  3271   000CD6  143E               	andwf	(___fldiv@grs+3)^0,w,c
  3272   000CD8  6E33               	movwf	(??___fldiv+3)^0,c
  3273   000CDA  5030               	movf	??___fldiv^0,w,c
  3274   000CDC  1031               	iorwf	(??___fldiv+1)^0,w,c
  3275   000CDE  1032               	iorwf	(??___fldiv+2)^0,w,c
  3276   000CE0  1033               	iorwf	(??___fldiv+3)^0,w,c
  3277   000CE2  B4D8               	btfsc	status,2,c
  3278   000CE4  EF76  F006         	goto	u1141
  3279   000CE8  EF78  F006         	goto	u1140
  3280   000CEC                     u1141:
  3281   000CEC  EF7C  F006         	goto	l891
  3282   000CF0                     u1140:
  3283   000CF0                     l1908:
  3284   000CF0  0E01               	movlw	1
  3285   000CF2  6E40               	movwf	___fldiv@aexp^0,c
  3286   000CF4  EF85  F006         	goto	l890
  3287   000CF8                     l891:
  3288   000CF8  A028               	btfss	___fldiv@b^0,0,c
  3289   000CFA  EF81  F006         	goto	u1151
  3290   000CFE  EF83  F006         	goto	u1150
  3291   000D02                     u1151:
  3292   000D02  EF85  F006         	goto	l890
  3293   000D06                     u1150:
  3294   000D06  EF78  F006         	goto	l1908
  3295   000D0A                     l890:
  3296   000D0A  5040               	movf	___fldiv@aexp^0,w,c
  3297   000D0C  B4D8               	btfsc	status,2,c
  3298   000D0E  EF8B  F006         	goto	u1161
  3299   000D12  EF8D  F006         	goto	u1160
  3300   000D16                     u1161:
  3301   000D16  EFB1  F006         	goto	l1920
  3302   000D1A                     u1160:
  3303   000D1A  0E01               	movlw	1
  3304   000D1C  2628               	addwf	___fldiv@b^0,f,c
  3305   000D1E  0E00               	movlw	0
  3306   000D20  2229               	addwfc	(___fldiv@b+1)^0,f,c
  3307   000D22  222A               	addwfc	(___fldiv@b+2)^0,f,c
  3308   000D24  222B               	addwfc	(___fldiv@b+3)^0,f,c
  3309   000D26  A02B               	btfss	(___fldiv@b+3)^0,0,c
  3310   000D28  EF98  F006         	goto	u1171
  3311   000D2C  EF9A  F006         	goto	u1170
  3312   000D30                     u1171:
  3313   000D30  EFB1  F006         	goto	l1920
  3314   000D34                     u1170:
  3315   000D34  C028  F030         	movff	___fldiv@b,??___fldiv
  3316   000D38  C029  F031         	movff	___fldiv@b+1,??___fldiv+1
  3317   000D3C  C02A  F032         	movff	___fldiv@b+2,??___fldiv+2
  3318   000D40  C02B  F033         	movff	___fldiv@b+3,??___fldiv+3
  3319   000D44  3433               	rlcf	(??___fldiv+3)^0,w,c
  3320   000D46  3233               	rrcf	(??___fldiv+3)^0,f,c
  3321   000D48  3232               	rrcf	(??___fldiv+2)^0,f,c
  3322   000D4A  3231               	rrcf	(??___fldiv+1)^0,f,c
  3323   000D4C  3230               	rrcf	??___fldiv^0,f,c
  3324   000D4E  C030  F028         	movff	??___fldiv,___fldiv@b
  3325   000D52  C031  F029         	movff	??___fldiv+1,___fldiv@b+1
  3326   000D56  C032  F02A         	movff	??___fldiv+2,___fldiv@b+2
  3327   000D5A  C033  F02B         	movff	??___fldiv+3,___fldiv@b+3
  3328   000D5E  4A39               	infsnz	___fldiv@new_exp^0,f,c
  3329   000D60  2A3A               	incf	(___fldiv@new_exp+1)^0,f,c
  3330   000D62                     l1920:
  3331   000D62  BE3A               	btfsc	(___fldiv@new_exp+1)^0,7,c
  3332   000D64  EFBC  F006         	goto	u1181
  3333   000D68  503A               	movf	(___fldiv@new_exp+1)^0,w,c
  3334   000D6A  E108               	bnz	u1180
  3335   000D6C  2839               	incf	___fldiv@new_exp^0,w,c
  3336   000D6E  A0D8               	btfss	status,0,c
  3337   000D70  EFBC  F006         	goto	u1181
  3338   000D74  EFBE  F006         	goto	u1180
  3339   000D78                     u1181:
  3340   000D78  EFC9  F006         	goto	l1924
  3341   000D7C                     u1180:
  3342   000D7C  0E00               	movlw	0
  3343   000D7E  6E3A               	movwf	(___fldiv@new_exp+1)^0,c
  3344   000D80  6839               	setf	___fldiv@new_exp^0,c
  3345   000D82  0E00               	movlw	0
  3346   000D84  6E28               	movwf	___fldiv@b^0,c
  3347   000D86  0E00               	movlw	0
  3348   000D88  6E29               	movwf	(___fldiv@b+1)^0,c
  3349   000D8A  0E00               	movlw	0
  3350   000D8C  6E2A               	movwf	(___fldiv@b+2)^0,c
  3351   000D8E  0E00               	movlw	0
  3352   000D90  6E2B               	movwf	(___fldiv@b+3)^0,c
  3353   000D92                     l1924:
  3354   000D92  BE3A               	btfsc	(___fldiv@new_exp+1)^0,7,c
  3355   000D94  EFD6  F006         	goto	u1190
  3356   000D98  503A               	movf	(___fldiv@new_exp+1)^0,w,c
  3357   000D9A  E106               	bnz	u1191
  3358   000D9C  0439               	decf	___fldiv@new_exp^0,w,c
  3359   000D9E  B0D8               	btfsc	status,0,c
  3360   000DA0  EFD4  F006         	goto	u1191
  3361   000DA4  EFD6  F006         	goto	u1190
  3362   000DA8                     u1191:
  3363   000DA8  EFE3  F006         	goto	l1930
  3364   000DAC                     u1190:
  3365   000DAC  0E00               	movlw	0
  3366   000DAE  6E3A               	movwf	(___fldiv@new_exp+1)^0,c
  3367   000DB0  0E00               	movlw	0
  3368   000DB2  6E39               	movwf	___fldiv@new_exp^0,c
  3369   000DB4  0E00               	movlw	0
  3370   000DB6  6E28               	movwf	___fldiv@b^0,c
  3371   000DB8  0E00               	movlw	0
  3372   000DBA  6E29               	movwf	(___fldiv@b+1)^0,c
  3373   000DBC  0E00               	movlw	0
  3374   000DBE  6E2A               	movwf	(___fldiv@b+2)^0,c
  3375   000DC0  0E00               	movlw	0
  3376   000DC2  6E2B               	movwf	(___fldiv@b+3)^0,c
  3377   000DC4  6A38               	clrf	___fldiv@sign^0,c
  3378   000DC6                     l1930:
  3379   000DC6  C039  F03F         	movff	___fldiv@new_exp,___fldiv@bexp
  3380   000DCA  A03F               	btfss	___fldiv@bexp^0,0,c
  3381   000DCC  EFEA  F006         	goto	u1201
  3382   000DD0  EFEC  F006         	goto	u1200
  3383   000DD4                     u1201:
  3384   000DD4  EFEF  F006         	goto	l1936
  3385   000DD8                     u1200:
  3386   000DD8  8E2A               	bsf	(___fldiv@b+2)^0,7,c
  3387   000DDA  EFF0  F006         	goto	l1938
  3388   000DDE                     l1936:
  3389   000DDE  9E2A               	bcf	(___fldiv@b+2)^0,7,c
  3390   000DE0                     l1938:
  3391   000DE0  90D8               	bcf	status,0,c
  3392   000DE2  303F               	rrcf	___fldiv@bexp^0,w,c
  3393   000DE4  6E2B               	movwf	(___fldiv@b+3)^0,c
  3394   000DE6  EFA9  F005         	goto	l1854
  3395   000DEA                     l877:
  3396   000DEA  0012               	return		;funcret
  3397   000DEC                     __end_of___fldiv:
  3398                           	callstack 0
  3399                           
  3400 ;; *************** function _motor_on *****************
  3401 ;; Defined at:
  3402 ;;		line 37 in file "WaterLevelController.X/src/motor_control.c"
  3403 ;; Parameters:    Size  Location     Type
  3404 ;;		None
  3405 ;; Auto vars:     Size  Location     Type
  3406 ;;		None
  3407 ;; Return value:  Size  Location     Type
  3408 ;;                  1    wreg      void 
  3409 ;; Registers used:
  3410 ;;		wreg, status,2
  3411 ;; Tracked objects:
  3412 ;;		On entry : 0/0
  3413 ;;		On exit  : 0/0
  3414 ;;		Unchanged: 0/0
  3415 ;; Data sizes:     COMRAM   BANK0   BANK1   BANK2   BANK3   BANK4   BANK5
  3416 ;;      Params:         0       0       0       0       0       0       0
  3417 ;;      Locals:         0       0       0       0       0       0       0
  3418 ;;      Temps:          0       0       0       0       0       0       0
  3419 ;;      Totals:         0       0       0       0       0       0       0
  3420 ;;Total ram usage:        0 bytes
  3421 ;; Hardware stack levels used: 1
  3422 ;; This function calls:
  3423 ;;		Nothing
  3424 ;; This function is called by:
  3425 ;;		_main
  3426 ;; This function uses a non-reentrant model
  3427 ;;
  3428                           
  3429                           	psect	text7
  3430   0015F6                     __ptext7:
  3431                           	callstack 0
  3432   0015F6                     _motor_on:
  3433                           	callstack 30
  3434   0015F6                     
  3435                           ;WaterLevelController.X/src/motor_control.c: 40:     LATDbits.LATD3 = 1;
  3436   0015F6  868C               	bsf	140,3,c	;volatile
  3437                           
  3438                           ;WaterLevelController.X/src/motor_control.c: 41:     LATDbits.LATD2 = 0;
  3439   0015F8  948C               	bcf	140,2,c	;volatile
  3440   0015FA                     
  3441                           ;WaterLevelController.X/src/motor_control.c: 42:     motor_state = 1;
  3442   0015FA  0E01               	movlw	1
  3443   0015FC  6E58               	movwf	_motor_state^0,c
  3444   0015FE  0012               	return		;funcret
  3445   001600                     __end_of_motor_on:
  3446                           	callstack 0
  3447                           
  3448 ;; *************** function _motor_off *****************
  3449 ;; Defined at:
  3450 ;;		line 45 in file "WaterLevelController.X/src/motor_control.c"
  3451 ;; Parameters:    Size  Location     Type
  3452 ;;		None
  3453 ;; Auto vars:     Size  Location     Type
  3454 ;;		None
  3455 ;; Return value:  Size  Location     Type
  3456 ;;                  1    wreg      void 
  3457 ;; Registers used:
  3458 ;;		None
  3459 ;; Tracked objects:
  3460 ;;		On entry : 0/0
  3461 ;;		On exit  : 0/0
  3462 ;;		Unchanged: 0/0
  3463 ;; Data sizes:     COMRAM   BANK0   BANK1   BANK2   BANK3   BANK4   BANK5
  3464 ;;      Params:         0       0       0       0       0       0       0
  3465 ;;      Locals:         0       0       0       0       0       0       0
  3466 ;;      Temps:          0       0       0       0       0       0       0
  3467 ;;      Totals:         0       0       0       0       0       0       0
  3468 ;;Total ram usage:        0 bytes
  3469 ;; Hardware stack levels used: 1
  3470 ;; This function calls:
  3471 ;;		Nothing
  3472 ;; This function is called by:
  3473 ;;		_main
  3474 ;; This function uses a non-reentrant model
  3475 ;;
  3476                           
  3477                           	psect	text8
  3478   00160A                     __ptext8:
  3479                           	callstack 0
  3480   00160A                     _motor_off:
  3481                           	callstack 30
  3482   00160A                     
  3483                           ;WaterLevelController.X/src/motor_control.c: 48:     LATDbits.LATD3 = 0;
  3484   00160A  968C               	bcf	140,3,c	;volatile
  3485                           
  3486                           ;WaterLevelController.X/src/motor_control.c: 49:     LATDbits.LATD2 = 1;
  3487   00160C  848C               	bsf	140,2,c	;volatile
  3488                           
  3489                           ;WaterLevelController.X/src/motor_control.c: 50:     motor_state = 0;
  3490   00160E  6A58               	clrf	_motor_state^0,c
  3491   001610  0012               	return		;funcret
  3492   001612                     __end_of_motor_off:
  3493                           	callstack 0
  3494                           
  3495 ;; *************** function _lcd_puts *****************
  3496 ;; Defined at:
  3497 ;;		line 77 in file "WaterLevelController.X/src/lcd.c"
  3498 ;; Parameters:    Size  Location     Type
  3499 ;;  str             1    7[COMRAM] PTR const unsigned char 
  3500 ;;		 -> STR_6(6), STR_5(6), STR_4(6), STR_3(20), 
  3501 ;;		 -> STR_2(8), STR_1(6), 
  3502 ;; Auto vars:     Size  Location     Type
  3503 ;;		None
  3504 ;; Return value:  Size  Location     Type
  3505 ;;                  1    wreg      void 
  3506 ;; Registers used:
  3507 ;;		wreg, status,2, status,0, tblptrl, tblptrh, tblptru, cstack
  3508 ;; Tracked objects:
  3509 ;;		On entry : 0/0
  3510 ;;		On exit  : 0/0
  3511 ;;		Unchanged: 0/0
  3512 ;; Data sizes:     COMRAM   BANK0   BANK1   BANK2   BANK3   BANK4   BANK5
  3513 ;;      Params:         1       0       0       0       0       0       0
  3514 ;;      Locals:         0       0       0       0       0       0       0
  3515 ;;      Temps:          0       0       0       0       0       0       0
  3516 ;;      Totals:         1       0       0       0       0       0       0
  3517 ;;Total ram usage:        1 bytes
  3518 ;; Hardware stack levels used: 1
  3519 ;; Hardware stack levels required when called: 4
  3520 ;; This function calls:
  3521 ;;		_lcd_putc
  3522 ;; This function is called by:
  3523 ;;		_main
  3524 ;;		_menu_config
  3525 ;; This function uses a non-reentrant model
  3526 ;;
  3527                           
  3528                           	psect	text9
  3529   001540                     __ptext9:
  3530                           	callstack 0
  3531   001540                     _lcd_puts:
  3532                           	callstack 26
  3533   001540                     
  3534                           ;WaterLevelController.X/src/lcd.c: 78:     while (*str) {
  3535   001540  EFA9  F00A         	goto	l2178
  3536   001544                     l2174:
  3537                           
  3538                           ;WaterLevelController.X/src/lcd.c: 79:         lcd_putc(*str++);
  3539   001544  C008  FFF6         	movff	lcd_puts@str,tblptrl
  3540   001548                     	if	0	;There is only one active tblptr byte
  3541   001548                     	endif
  3542   001548                     	if	0	;tblptru may be non-zero
  3543   001548                     	endif
  3544   001548                     	if	0	;tblptru may be non-zero
  3545   001548                     	endif
  3546   001548  0008               	tblrd		*
  3547   00154A  50F5               	movf	tablat,w,c
  3548   00154C  ECFD  F009         	call	_lcd_putc
  3549   001550  2A08               	incf	lcd_puts@str^0,f,c
  3550   001552                     l2178:
  3551                           
  3552                           ;WaterLevelController.X/src/lcd.c: 78:     while (*str) {
  3553   001552  C008  FFF6         	movff	lcd_puts@str,tblptrl
  3554   001556                     	if	0	;There is only one active tblptr byte
  3555   001556                     	endif
  3556   001556                     	if	0	;tblptru may be non-zero
  3557   001556                     	endif
  3558   001556                     	if	0	;tblptru may be non-zero
  3559   001556                     	endif
  3560   001556  0008               	tblrd		*
  3561   001558  50F5               	movf	tablat,w,c
  3562   00155A  0900               	iorlw	0
  3563   00155C  A4D8               	btfss	status,2,c
  3564   00155E  EFB3  F00A         	goto	u1571
  3565   001562  EFB5  F00A         	goto	u1570
  3566   001566                     u1571:
  3567   001566  EFA2  F00A         	goto	l2174
  3568   00156A                     u1570:
  3569   00156A  0012               	return		;funcret
  3570   00156C                     __end_of_lcd_puts:
  3571                           	callstack 0
  3572                           
  3573 ;; *************** function _lcd_init *****************
  3574 ;; Defined at:
  3575 ;;		line 47 in file "WaterLevelController.X/src/lcd.c"
  3576 ;; Parameters:    Size  Location     Type
  3577 ;;		None
  3578 ;; Auto vars:     Size  Location     Type
  3579 ;;  i               1    6[COMRAM] unsigned char 
  3580 ;; Return value:  Size  Location     Type
  3581 ;;                  1    wreg      void 
  3582 ;; Registers used:
  3583 ;;		wreg, status,2, status,0, cstack
  3584 ;; Tracked objects:
  3585 ;;		On entry : 0/0
  3586 ;;		On exit  : 0/0
  3587 ;;		Unchanged: 0/0
  3588 ;; Data sizes:     COMRAM   BANK0   BANK1   BANK2   BANK3   BANK4   BANK5
  3589 ;;      Params:         0       0       0       0       0       0       0
  3590 ;;      Locals:         1       0       0       0       0       0       0
  3591 ;;      Temps:          0       0       0       0       0       0       0
  3592 ;;      Totals:         1       0       0       0       0       0       0
  3593 ;;Total ram usage:        1 bytes
  3594 ;; Hardware stack levels used: 1
  3595 ;; Hardware stack levels required when called: 3
  3596 ;; This function calls:
  3597 ;;		_lcd_delay_ms
  3598 ;;		_lcd_send_byte
  3599 ;;		_lcd_send_nibble
  3600 ;; This function is called by:
  3601 ;;		_main
  3602 ;; This function uses a non-reentrant model
  3603 ;;
  3604                           
  3605                           	psect	text10
  3606   001232                     __ptext10:
  3607                           	callstack 0
  3608   001232                     _lcd_init:
  3609                           	callstack 27
  3610   001232                     
  3611                           ;WaterLevelController.X/src/lcd.c: 48:     TRISBbits.TRISB1 = 0; TRISBbits.TRISB0 = 0;
  3612   001232  9293               	bcf	147,1,c	;volatile
  3613   001234  9093               	bcf	147,0,c	;volatile
  3614                           
  3615                           ;WaterLevelController.X/src/lcd.c: 49:     TRISBbits.TRISB5 = 0; TRISBbits.TRISB4 = 0;
  3616   001236  9A93               	bcf	147,5,c	;volatile
  3617   001238  9893               	bcf	147,4,c	;volatile
  3618                           
  3619                           ;WaterLevelController.X/src/lcd.c: 50:     TRISBbits.TRISB3 = 0; TRISBbits.TRISB2 = 0;
  3620   00123A  9693               	bcf	147,3,c	;volatile
  3621   00123C  9493               	bcf	147,2,c	;volatile
  3622                           
  3623                           ;WaterLevelController.X/src/lcd.c: 52:     LATBbits.LATB1 = 0; LATBbits.LATB0 = 0;
  3624   00123E  928A               	bcf	138,1,c	;volatile
  3625   001240  908A               	bcf	138,0,c	;volatile
  3626   001242                     
  3627                           ;WaterLevelController.X/src/lcd.c: 53:     lcd_delay_ms(50);
  3628   001242  0E00               	movlw	0
  3629   001244  6E02               	movwf	(lcd_delay_ms@ms+1)^0,c
  3630   001246  0E32               	movlw	50
  3631   001248  6E01               	movwf	lcd_delay_ms@ms^0,c
  3632   00124A  EC89  F00A         	call	_lcd_delay_ms	;wreg free
  3633   00124E                     
  3634                           ;WaterLevelController.X/src/lcd.c: 55:     for (char i = 0; i < 3; i++) {
  3635   00124E  6A07               	clrf	lcd_init@i^0,c
  3636   001250                     l2164:
  3637                           
  3638                           ;WaterLevelController.X/src/lcd.c: 56:         lcd_send_nibble(0x03);
  3639   001250  0E03               	movlw	3
  3640   001252  ECD1  F008         	call	_lcd_send_nibble
  3641                           
  3642                           ;WaterLevelController.X/src/lcd.c: 57:         lcd_delay_ms(5);
  3643   001256  0E00               	movlw	0
  3644   001258  6E02               	movwf	(lcd_delay_ms@ms+1)^0,c
  3645   00125A  0E05               	movlw	5
  3646   00125C  6E01               	movwf	lcd_delay_ms@ms^0,c
  3647   00125E  EC89  F00A         	call	_lcd_delay_ms	;wreg free
  3648   001262                     
  3649                           ;WaterLevelController.X/src/lcd.c: 58:     }
  3650   001262  2A07               	incf	lcd_init@i^0,f,c
  3651   001264  0E02               	movlw	2
  3652   001266  6407               	cpfsgt	lcd_init@i^0,c
  3653   001268  EF38  F009         	goto	u1561
  3654   00126C  EF3A  F009         	goto	u1560
  3655   001270                     u1561:
  3656   001270  EF28  F009         	goto	l2164
  3657   001274                     u1560:
  3658   001274                     
  3659                           ;WaterLevelController.X/src/lcd.c: 60:     lcd_send_nibble(0x02);
  3660   001274  0E02               	movlw	2
  3661   001276  ECD1  F008         	call	_lcd_send_nibble
  3662                           
  3663                           ;WaterLevelController.X/src/lcd.c: 61:     lcd_send_byte(0, 0x28);
  3664   00127A  0E28               	movlw	40
  3665   00127C  6E05               	movwf	lcd_send_byte@byte^0,c
  3666   00127E  0E00               	movlw	0
  3667   001280  ECB6  F00A         	call	_lcd_send_byte
  3668                           
  3669                           ;WaterLevelController.X/src/lcd.c: 62:     lcd_send_byte(0, 0x0C);
  3670   001284  0E0C               	movlw	12
  3671   001286  6E05               	movwf	lcd_send_byte@byte^0,c
  3672   001288  0E00               	movlw	0
  3673   00128A  ECB6  F00A         	call	_lcd_send_byte
  3674                           
  3675                           ;WaterLevelController.X/src/lcd.c: 63:     lcd_send_byte(0, 0x01);
  3676   00128E  0E01               	movlw	1
  3677   001290  6E05               	movwf	lcd_send_byte@byte^0,c
  3678   001292  0E00               	movlw	0
  3679   001294  ECB6  F00A         	call	_lcd_send_byte
  3680                           
  3681                           ;WaterLevelController.X/src/lcd.c: 64:     lcd_delay_ms(2);
  3682   001298  0E00               	movlw	0
  3683   00129A  6E02               	movwf	(lcd_delay_ms@ms+1)^0,c
  3684   00129C  0E02               	movlw	2
  3685   00129E  6E01               	movwf	lcd_delay_ms@ms^0,c
  3686   0012A0  EC89  F00A         	call	_lcd_delay_ms	;wreg free
  3687                           
  3688                           ;WaterLevelController.X/src/lcd.c: 65:     lcd_send_byte(0, 0x06);
  3689   0012A4  0E06               	movlw	6
  3690   0012A6  6E05               	movwf	lcd_send_byte@byte^0,c
  3691   0012A8  0E00               	movlw	0
  3692   0012AA  ECB6  F00A         	call	_lcd_send_byte
  3693   0012AE  0012               	return		;funcret
  3694   0012B0                     __end_of_lcd_init:
  3695                           	callstack 0
  3696                           
  3697 ;; *************** function _lcd_gotoxy *****************
  3698 ;; Defined at:
  3699 ;;		line 83 in file "WaterLevelController.X/src/lcd.c"
  3700 ;; Parameters:    Size  Location     Type
  3701 ;;  x               1    wreg     unsigned char 
  3702 ;;  y               1    6[COMRAM] unsigned char 
  3703 ;; Auto vars:     Size  Location     Type
  3704 ;;  x               1   13[COMRAM] unsigned char 
  3705 ;;  addr            4    9[COMRAM] unsigned char [4]
  3706 ;; Return value:  Size  Location     Type
  3707 ;;                  1    wreg      void 
  3708 ;; Registers used:
  3709 ;;		wreg, fsr2l, fsr2h, status,2, status,0, cstack
  3710 ;; Tracked objects:
  3711 ;;		On entry : 0/0
  3712 ;;		On exit  : 0/0
  3713 ;;		Unchanged: 0/0
  3714 ;; Data sizes:     COMRAM   BANK0   BANK1   BANK2   BANK3   BANK4   BANK5
  3715 ;;      Params:         1       0       0       0       0       0       0
  3716 ;;      Locals:         5       0       0       0       0       0       0
  3717 ;;      Temps:          2       0       0       0       0       0       0
  3718 ;;      Totals:         8       0       0       0       0       0       0
  3719 ;;Total ram usage:        8 bytes
  3720 ;; Hardware stack levels used: 1
  3721 ;; Hardware stack levels required when called: 3
  3722 ;; This function calls:
  3723 ;;		_lcd_send_byte
  3724 ;; This function is called by:
  3725 ;;		_main
  3726 ;;		_menu_config
  3727 ;; This function uses a non-reentrant model
  3728 ;;
  3729                           
  3730                           	psect	text11
  3731   0014DC                     __ptext11:
  3732                           	callstack 0
  3733   0014DC                     _lcd_gotoxy:
  3734                           	callstack 27
  3735                           
  3736                           ;incstack = 0
  3737                           ;lcd_gotoxy@x stored from wreg
  3738   0014DC  6E0E               	movwf	lcd_gotoxy@x^0,c
  3739   0014DE                     
  3740                           ;WaterLevelController.X/src/lcd.c: 84:     unsigned char addr[] = {0x00, 0x40, 0x14, 0x5
      +                          4};
  3741   0014DE  C059  F00A         	movff	lcd_gotoxy@F3092,lcd_gotoxy@addr
  3742   0014E2  C05A  F00B         	movff	lcd_gotoxy@F3092+1,lcd_gotoxy@addr+1
  3743   0014E6  C05B  F00C         	movff	lcd_gotoxy@F3092+2,lcd_gotoxy@addr+2
  3744   0014EA  C05C  F00D         	movff	lcd_gotoxy@F3092+3,lcd_gotoxy@addr+3
  3745   0014EE                     
  3746                           ;WaterLevelController.X/src/lcd.c: 85:     lcd_send_byte(0, 0x80 | (addr[y - 1] + x - 1)
      +                          );
  3747   0014EE  C007  F008         	movff	lcd_gotoxy@y,??_lcd_gotoxy
  3748   0014F2  0EFF               	movlw	255
  3749   0014F4  2608               	addwf	??_lcd_gotoxy^0,f,c
  3750   0014F6  5008               	movf	??_lcd_gotoxy^0,w,c
  3751   0014F8  0F0A               	addlw	low lcd_gotoxy@addr
  3752   0014FA  6ED9               	movwf	fsr2l,c
  3753   0014FC  6ADA               	clrf	fsr2h,c
  3754   0014FE  50DF               	movf	indf2,w,c
  3755   001500  240E               	addwf	lcd_gotoxy@x^0,w,c
  3756   001502  6E09               	movwf	(??_lcd_gotoxy+1)^0,c
  3757   001504  0409               	decf	(??_lcd_gotoxy+1)^0,w,c
  3758   001506  0980               	iorlw	128
  3759   001508  6E05               	movwf	lcd_send_byte@byte^0,c
  3760   00150A  0E00               	movlw	0
  3761   00150C  ECB6  F00A         	call	_lcd_send_byte
  3762   001510  0012               	return		;funcret
  3763   001512                     __end_of_lcd_gotoxy:
  3764                           	callstack 0
  3765                           
  3766 ;; *************** function _lcd_clear *****************
  3767 ;; Defined at:
  3768 ;;		line 88 in file "WaterLevelController.X/src/lcd.c"
  3769 ;; Parameters:    Size  Location     Type
  3770 ;;		None
  3771 ;; Auto vars:     Size  Location     Type
  3772 ;;		None
  3773 ;; Return value:  Size  Location     Type
  3774 ;;                  1    wreg      void 
  3775 ;; Registers used:
  3776 ;;		wreg, status,2, status,0, cstack
  3777 ;; Tracked objects:
  3778 ;;		On entry : 0/0
  3779 ;;		On exit  : 0/0
  3780 ;;		Unchanged: 0/0
  3781 ;; Data sizes:     COMRAM   BANK0   BANK1   BANK2   BANK3   BANK4   BANK5
  3782 ;;      Params:         0       0       0       0       0       0       0
  3783 ;;      Locals:         0       0       0       0       0       0       0
  3784 ;;      Temps:          0       0       0       0       0       0       0
  3785 ;;      Totals:         0       0       0       0       0       0       0
  3786 ;;Total ram usage:        0 bytes
  3787 ;; Hardware stack levels used: 1
  3788 ;; Hardware stack levels required when called: 4
  3789 ;; This function calls:
  3790 ;;		_lcd_putc
  3791 ;; This function is called by:
  3792 ;;		_main
  3793 ;;		_menu_config
  3794 ;; This function uses a non-reentrant model
  3795 ;;
  3796                           
  3797                           	psect	text12
  3798   001612                     __ptext12:
  3799                           	callstack 0
  3800   001612                     _lcd_clear:
  3801                           	callstack 26
  3802   001612                     
  3803                           ;WaterLevelController.X/src/lcd.c: 89:     lcd_putc('\f');
  3804   001612  0E0C               	movlw	12
  3805   001614  ECFD  F009         	call	_lcd_putc
  3806   001618  0012               	return		;funcret
  3807   00161A                     __end_of_lcd_clear:
  3808                           	callstack 0
  3809                           
  3810 ;; *************** function _lcd_putc *****************
  3811 ;; Defined at:
  3812 ;;		line 68 in file "WaterLevelController.X/src/lcd.c"
  3813 ;; Parameters:    Size  Location     Type
  3814 ;;  c               1    wreg     unsigned char 
  3815 ;; Auto vars:     Size  Location     Type
  3816 ;;  c               1    6[COMRAM] unsigned char 
  3817 ;; Return value:  Size  Location     Type
  3818 ;;                  1    wreg      void 
  3819 ;; Registers used:
  3820 ;;		wreg, status,2, status,0, cstack
  3821 ;; Tracked objects:
  3822 ;;		On entry : 0/0
  3823 ;;		On exit  : 0/0
  3824 ;;		Unchanged: 0/0
  3825 ;; Data sizes:     COMRAM   BANK0   BANK1   BANK2   BANK3   BANK4   BANK5
  3826 ;;      Params:         0       0       0       0       0       0       0
  3827 ;;      Locals:         1       0       0       0       0       0       0
  3828 ;;      Temps:          0       0       0       0       0       0       0
  3829 ;;      Totals:         1       0       0       0       0       0       0
  3830 ;;Total ram usage:        1 bytes
  3831 ;; Hardware stack levels used: 1
  3832 ;; Hardware stack levels required when called: 3
  3833 ;; This function calls:
  3834 ;;		_lcd_delay_ms
  3835 ;;		_lcd_send_byte
  3836 ;; This function is called by:
  3837 ;;		_lcd_puts
  3838 ;;		_lcd_clear
  3839 ;;		_menu_config
  3840 ;; This function uses a non-reentrant model
  3841 ;;
  3842                           
  3843                           	psect	text13
  3844   0013FA                     __ptext13:
  3845                           	callstack 0
  3846   0013FA                     _lcd_putc:
  3847                           	callstack 26
  3848                           
  3849                           ;incstack = 0
  3850                           ;lcd_putc@c stored from wreg
  3851   0013FA  6E07               	movwf	lcd_putc@c^0,c
  3852   0013FC                     
  3853                           ;WaterLevelController.X/src/lcd.c: 69:     if (c == '\f') {
  3854   0013FC  0E0C               	movlw	12
  3855   0013FE  1807               	xorwf	lcd_putc@c^0,w,c
  3856   001400  A4D8               	btfss	status,2,c
  3857   001402  EF05  F00A         	goto	u1501
  3858   001406  EF07  F00A         	goto	u1500
  3859   00140A                     u1501:
  3860   00140A  EF14  F00A         	goto	l2130
  3861   00140E                     u1500:
  3862   00140E                     
  3863                           ;WaterLevelController.X/src/lcd.c: 70:         lcd_send_byte(0, 0x01);
  3864   00140E  0E01               	movlw	1
  3865   001410  6E05               	movwf	lcd_send_byte@byte^0,c
  3866   001412  0E00               	movlw	0
  3867   001414  ECB6  F00A         	call	_lcd_send_byte
  3868                           
  3869                           ;WaterLevelController.X/src/lcd.c: 71:         lcd_delay_ms(2);
  3870   001418  0E00               	movlw	0
  3871   00141A  6E02               	movwf	(lcd_delay_ms@ms+1)^0,c
  3872   00141C  0E02               	movlw	2
  3873   00141E  6E01               	movwf	lcd_delay_ms@ms^0,c
  3874   001420  EC89  F00A         	call	_lcd_delay_ms	;wreg free
  3875                           
  3876                           ;WaterLevelController.X/src/lcd.c: 72:     } else {
  3877   001424  EF19  F00A         	goto	l112
  3878   001428                     l2130:
  3879                           
  3880                           ;WaterLevelController.X/src/lcd.c: 73:         lcd_send_byte(1, c);
  3881   001428  C007  F005         	movff	lcd_putc@c,lcd_send_byte@byte
  3882   00142C  0E01               	movlw	1
  3883   00142E  ECB6  F00A         	call	_lcd_send_byte
  3884   001432                     l112:
  3885   001432  0012               	return		;funcret
  3886   001434                     __end_of_lcd_putc:
  3887                           	callstack 0
  3888                           
  3889 ;; *************** function _lcd_send_byte *****************
  3890 ;; Defined at:
  3891 ;;		line 40 in file "WaterLevelController.X/src/lcd.c"
  3892 ;; Parameters:    Size  Location     Type
  3893 ;;  isData          1    wreg     unsigned char 
  3894 ;;  byte            1    4[COMRAM] unsigned char 
  3895 ;; Auto vars:     Size  Location     Type
  3896 ;;  isData          1    5[COMRAM] unsigned char 
  3897 ;; Return value:  Size  Location     Type
  3898 ;;                  1    wreg      void 
  3899 ;; Registers used:
  3900 ;;		wreg, status,2, status,0, cstack
  3901 ;; Tracked objects:
  3902 ;;		On entry : 0/0
  3903 ;;		On exit  : 0/0
  3904 ;;		Unchanged: 0/0
  3905 ;; Data sizes:     COMRAM   BANK0   BANK1   BANK2   BANK3   BANK4   BANK5
  3906 ;;      Params:         1       0       0       0       0       0       0
  3907 ;;      Locals:         1       0       0       0       0       0       0
  3908 ;;      Temps:          0       0       0       0       0       0       0
  3909 ;;      Totals:         2       0       0       0       0       0       0
  3910 ;;Total ram usage:        2 bytes
  3911 ;; Hardware stack levels used: 1
  3912 ;; Hardware stack levels required when called: 2
  3913 ;; This function calls:
  3914 ;;		_lcd_delay_us
  3915 ;;		_lcd_send_nibble
  3916 ;; This function is called by:
  3917 ;;		_lcd_init
  3918 ;;		_lcd_putc
  3919 ;;		_lcd_gotoxy
  3920 ;; This function uses a non-reentrant model
  3921 ;;
  3922                           
  3923                           	psect	text14
  3924   00156C                     __ptext14:
  3925                           	callstack 0
  3926   00156C                     _lcd_send_byte:
  3927                           	callstack 26
  3928                           
  3929                           ;incstack = 0
  3930                           ;lcd_send_byte@isData stored from wreg
  3931   00156C  6E06               	movwf	lcd_send_byte@isData^0,c
  3932   00156E                     
  3933                           ;WaterLevelController.X/src/lcd.c: 41:     LATBbits.LATB1 = isData;
  3934   00156E  B006               	btfsc	lcd_send_byte@isData^0,0,c
  3935   001570  D002               	bra	u975
  3936   001572  928A               	bcf	138,1,c	;volatile
  3937   001574  D001               	bra	u976
  3938   001576                     u975:
  3939   001576  828A               	bsf	138,1,c	;volatile
  3940   001578                     u976:
  3941   001578                     
  3942                           ;WaterLevelController.X/src/lcd.c: 42:     lcd_send_nibble(byte >> 4);
  3943   001578  3805               	swapf	lcd_send_byte@byte^0,w,c
  3944   00157A  0B0F               	andlw	15
  3945   00157C  ECD1  F008         	call	_lcd_send_nibble
  3946   001580                     
  3947                           ;WaterLevelController.X/src/lcd.c: 43:     lcd_send_nibble(byte & 0x0F);
  3948   001580  5005               	movf	lcd_send_byte@byte^0,w,c
  3949   001582  0B0F               	andlw	15
  3950   001584  ECD1  F008         	call	_lcd_send_nibble
  3951   001588                     
  3952                           ;WaterLevelController.X/src/lcd.c: 44:     lcd_delay_us(60);
  3953   001588  0E00               	movlw	0
  3954   00158A  6E02               	movwf	(lcd_delay_us@us+1)^0,c
  3955   00158C  0E3C               	movlw	60
  3956   00158E  6E01               	movwf	lcd_delay_us@us^0,c
  3957   001590  ECDF  F00A         	call	_lcd_delay_us	;wreg free
  3958   001594  0012               	return		;funcret
  3959   001596                     __end_of_lcd_send_byte:
  3960                           	callstack 0
  3961                           
  3962 ;; *************** function _lcd_send_nibble *****************
  3963 ;; Defined at:
  3964 ;;		line 28 in file "WaterLevelController.X/src/lcd.c"
  3965 ;; Parameters:    Size  Location     Type
  3966 ;;  nibble          1    wreg     unsigned char 
  3967 ;; Auto vars:     Size  Location     Type
  3968 ;;  nibble          1    3[COMRAM] unsigned char 
  3969 ;; Return value:  Size  Location     Type
  3970 ;;                  1    wreg      void 
  3971 ;; Registers used:
  3972 ;;		wreg, status,2, status,0, cstack
  3973 ;; Tracked objects:
  3974 ;;		On entry : 0/0
  3975 ;;		On exit  : 0/0
  3976 ;;		Unchanged: 0/0
  3977 ;; Data sizes:     COMRAM   BANK0   BANK1   BANK2   BANK3   BANK4   BANK5
  3978 ;;      Params:         0       0       0       0       0       0       0
  3979 ;;      Locals:         1       0       0       0       0       0       0
  3980 ;;      Temps:          1       0       0       0       0       0       0
  3981 ;;      Totals:         2       0       0       0       0       0       0
  3982 ;;Total ram usage:        2 bytes
  3983 ;; Hardware stack levels used: 1
  3984 ;; Hardware stack levels required when called: 1
  3985 ;; This function calls:
  3986 ;;		_lcd_delay_us
  3987 ;; This function is called by:
  3988 ;;		_lcd_send_byte
  3989 ;;		_lcd_init
  3990 ;; This function uses a non-reentrant model
  3991 ;;
  3992                           
  3993                           	psect	text15
  3994   0011A2                     __ptext15:
  3995                           	callstack 0
  3996   0011A2                     _lcd_send_nibble:
  3997                           	callstack 26
  3998                           
  3999                           ;incstack = 0
  4000                           ;lcd_send_nibble@nibble stored from wreg
  4001   0011A2  6E04               	movwf	lcd_send_nibble@nibble^0,c
  4002   0011A4                     
  4003                           ;WaterLevelController.X/src/lcd.c: 29:     LATBbits.LATB5 = (nibble >> 0) & 1;
  4004   0011A4  C004  F003         	movff	lcd_send_nibble@nibble,??_lcd_send_nibble
  4005   0011A8  0E01               	movlw	1
  4006   0011AA  1603               	andwf	??_lcd_send_nibble^0,f,c
  4007   0011AC  3A03               	swapf	??_lcd_send_nibble^0,f,c
  4008   0011AE  4603               	rlncf	??_lcd_send_nibble^0,f,c
  4009   0011B0  508A               	movf	138,w,c	;volatile
  4010   0011B2  1803               	xorwf	??_lcd_send_nibble^0,w,c
  4011   0011B4  0BDF               	andlw	-33
  4012   0011B6  1803               	xorwf	??_lcd_send_nibble^0,w,c
  4013   0011B8  6E8A               	movwf	138,c	;volatile
  4014                           
  4015                           ;WaterLevelController.X/src/lcd.c: 30:     LATBbits.LATB4 = (nibble >> 1) & 1;
  4016   0011BA  C004  F003         	movff	lcd_send_nibble@nibble,??_lcd_send_nibble
  4017   0011BE  90D8               	bcf	status,0,c
  4018   0011C0  3203               	rrcf	??_lcd_send_nibble^0,f,c
  4019   0011C2  0E01               	movlw	1
  4020   0011C4  1603               	andwf	??_lcd_send_nibble^0,f,c
  4021   0011C6  3A03               	swapf	??_lcd_send_nibble^0,f,c
  4022   0011C8  508A               	movf	138,w,c	;volatile
  4023   0011CA  1803               	xorwf	??_lcd_send_nibble^0,w,c
  4024   0011CC  0BEF               	andlw	-17
  4025   0011CE  1803               	xorwf	??_lcd_send_nibble^0,w,c
  4026   0011D0  6E8A               	movwf	138,c	;volatile
  4027                           
  4028                           ;WaterLevelController.X/src/lcd.c: 31:     LATBbits.LATB3 = (nibble >> 2) & 1;
  4029   0011D2  C004  F003         	movff	lcd_send_nibble@nibble,??_lcd_send_nibble
  4030   0011D6  90D8               	bcf	status,0,c
  4031   0011D8  3203               	rrcf	??_lcd_send_nibble^0,f,c
  4032   0011DA  90D8               	bcf	status,0,c
  4033   0011DC  3203               	rrcf	??_lcd_send_nibble^0,f,c
  4034   0011DE  0E01               	movlw	1
  4035   0011E0  1603               	andwf	??_lcd_send_nibble^0,f,c
  4036   0011E2  4603               	rlncf	??_lcd_send_nibble^0,f,c
  4037   0011E4  4603               	rlncf	??_lcd_send_nibble^0,f,c
  4038   0011E6  4603               	rlncf	??_lcd_send_nibble^0,f,c
  4039   0011E8  508A               	movf	138,w,c	;volatile
  4040   0011EA  1803               	xorwf	??_lcd_send_nibble^0,w,c
  4041   0011EC  0BF7               	andlw	-9
  4042   0011EE  1803               	xorwf	??_lcd_send_nibble^0,w,c
  4043   0011F0  6E8A               	movwf	138,c	;volatile
  4044                           
  4045                           ;WaterLevelController.X/src/lcd.c: 32:     LATBbits.LATB2 = (nibble >> 3) & 1;
  4046   0011F2  C004  F003         	movff	lcd_send_nibble@nibble,??_lcd_send_nibble
  4047   0011F6  90D8               	bcf	status,0,c
  4048   0011F8  3203               	rrcf	??_lcd_send_nibble^0,f,c
  4049   0011FA  90D8               	bcf	status,0,c
  4050   0011FC  3203               	rrcf	??_lcd_send_nibble^0,f,c
  4051   0011FE  90D8               	bcf	status,0,c
  4052   001200  3203               	rrcf	??_lcd_send_nibble^0,f,c
  4053   001202  0E01               	movlw	1
  4054   001204  1603               	andwf	??_lcd_send_nibble^0,f,c
  4055   001206  4603               	rlncf	??_lcd_send_nibble^0,f,c
  4056   001208  4603               	rlncf	??_lcd_send_nibble^0,f,c
  4057   00120A  508A               	movf	138,w,c	;volatile
  4058   00120C  1803               	xorwf	??_lcd_send_nibble^0,w,c
  4059   00120E  0BFB               	andlw	-5
  4060   001210  1803               	xorwf	??_lcd_send_nibble^0,w,c
  4061   001212  6E8A               	movwf	138,c	;volatile
  4062   001214                     
  4063                           ;WaterLevelController.X/src/lcd.c: 34:     LATBbits.LATB0 = 1;
  4064   001214  808A               	bsf	138,0,c	;volatile
  4065   001216                     
  4066                           ;WaterLevelController.X/src/lcd.c: 35:     lcd_delay_us(5);
  4067   001216  0E00               	movlw	0
  4068   001218  6E02               	movwf	(lcd_delay_us@us+1)^0,c
  4069   00121A  0E05               	movlw	5
  4070   00121C  6E01               	movwf	lcd_delay_us@us^0,c
  4071   00121E  ECDF  F00A         	call	_lcd_delay_us	;wreg free
  4072   001222                     
  4073                           ;WaterLevelController.X/src/lcd.c: 36:     LATBbits.LATB0 = 0;
  4074   001222  908A               	bcf	138,0,c	;volatile
  4075   001224                     
  4076                           ;WaterLevelController.X/src/lcd.c: 37:     lcd_delay_us(5);
  4077   001224  0E00               	movlw	0
  4078   001226  6E02               	movwf	(lcd_delay_us@us+1)^0,c
  4079   001228  0E05               	movlw	5
  4080   00122A  6E01               	movwf	lcd_delay_us@us^0,c
  4081   00122C  ECDF  F00A         	call	_lcd_delay_us	;wreg free
  4082   001230  0012               	return		;funcret
  4083   001232                     __end_of_lcd_send_nibble:
  4084                           	callstack 0
  4085                           
  4086 ;; *************** function _lcd_delay_us *****************
  4087 ;; Defined at:
  4088 ;;		line 20 in file "WaterLevelController.X/src/lcd.c"
  4089 ;; Parameters:    Size  Location     Type
  4090 ;;  us              2    0[COMRAM] unsigned int 
  4091 ;; Auto vars:     Size  Location     Type
  4092 ;;		None
  4093 ;; Return value:  Size  Location     Type
  4094 ;;                  1    wreg      void 
  4095 ;; Registers used:
  4096 ;;		wreg, status,2, status,0
  4097 ;; Tracked objects:
  4098 ;;		On entry : 0/0
  4099 ;;		On exit  : 0/0
  4100 ;;		Unchanged: 0/0
  4101 ;; Data sizes:     COMRAM   BANK0   BANK1   BANK2   BANK3   BANK4   BANK5
  4102 ;;      Params:         2       0       0       0       0       0       0
  4103 ;;      Locals:         0       0       0       0       0       0       0
  4104 ;;      Temps:          0       0       0       0       0       0       0
  4105 ;;      Totals:         2       0       0       0       0       0       0
  4106 ;;Total ram usage:        2 bytes
  4107 ;; Hardware stack levels used: 1
  4108 ;; This function calls:
  4109 ;;		Nothing
  4110 ;; This function is called by:
  4111 ;;		_lcd_send_nibble
  4112 ;;		_lcd_send_byte
  4113 ;; This function uses a non-reentrant model
  4114 ;;
  4115                           
  4116                           	psect	text16
  4117   0015BE                     __ptext16:
  4118                           	callstack 0
  4119   0015BE                     _lcd_delay_us:
  4120                           	callstack 26
  4121   0015BE                     
  4122                           ;WaterLevelController.X/src/lcd.c: 21:     while(us--) _delay((unsigned long)((1)*(80000
      +                          00/4000000.0)));
  4123   0015BE  EFE2  F00A         	goto	l1768
  4124   0015C2                     l88:
  4125   0015C2  D000               	nop2		;2 cycle nop
  4126   0015C4                     l1768:
  4127   0015C4  0601               	decf	lcd_delay_us@us^0,f,c
  4128   0015C6  A0D8               	btfss	status,0,c
  4129   0015C8  0602               	decf	(lcd_delay_us@us+1)^0,f,c
  4130   0015CA  2801               	incf	lcd_delay_us@us^0,w,c
  4131   0015CC  E106               	bnz	u931
  4132   0015CE  2802               	incf	(lcd_delay_us@us+1)^0,w,c
  4133   0015D0  A4D8               	btfss	status,2,c
  4134   0015D2  EFED  F00A         	goto	u931
  4135   0015D6  EFEF  F00A         	goto	u930
  4136   0015DA                     u931:
  4137   0015DA  EFE1  F00A         	goto	l88
  4138   0015DE                     u930:
  4139   0015DE  0012               	return		;funcret
  4140   0015E0                     __end_of_lcd_delay_us:
  4141                           	callstack 0
  4142                           
  4143 ;; *************** function _lcd_delay_ms *****************
  4144 ;; Defined at:
  4145 ;;		line 24 in file "WaterLevelController.X/src/lcd.c"
  4146 ;; Parameters:    Size  Location     Type
  4147 ;;  ms              2    0[COMRAM] unsigned int 
  4148 ;; Auto vars:     Size  Location     Type
  4149 ;;		None
  4150 ;; Return value:  Size  Location     Type
  4151 ;;                  1    wreg      void 
  4152 ;; Registers used:
  4153 ;;		wreg, status,2, status,0
  4154 ;; Tracked objects:
  4155 ;;		On entry : 0/0
  4156 ;;		On exit  : 0/0
  4157 ;;		Unchanged: 0/0
  4158 ;; Data sizes:     COMRAM   BANK0   BANK1   BANK2   BANK3   BANK4   BANK5
  4159 ;;      Params:         2       0       0       0       0       0       0
  4160 ;;      Locals:         0       0       0       0       0       0       0
  4161 ;;      Temps:          1       0       0       0       0       0       0
  4162 ;;      Totals:         3       0       0       0       0       0       0
  4163 ;;Total ram usage:        3 bytes
  4164 ;; Hardware stack levels used: 1
  4165 ;; This function calls:
  4166 ;;		Nothing
  4167 ;; This function is called by:
  4168 ;;		_lcd_init
  4169 ;;		_lcd_putc
  4170 ;; This function uses a non-reentrant model
  4171 ;;
  4172                           
  4173                           	psect	text17
  4174   001512                     __ptext17:
  4175                           	callstack 0
  4176   001512                     _lcd_delay_ms:
  4177                           	callstack 28
  4178   001512                     
  4179                           ;WaterLevelController.X/src/lcd.c: 25:     while(ms--) _delay((unsigned long)((1)*(80000
      +                          00/4000.0)));
  4180   001512  EF92  F00A         	goto	l1800
  4181   001516                     l1798:
  4182   001516  0E03               	movlw	3
  4183   001518  6E03               	movwf	??_lcd_delay_ms^0,c
  4184   00151A  0E98               	movlw	152
  4185   00151C                     u1767:
  4186   00151C  2EE8               	decfsz	wreg,f,c
  4187   00151E  D7FE               	bra	u1767
  4188   001520  2E03               	decfsz	??_lcd_delay_ms^0,f,c
  4189   001522  D7FC               	bra	u1767
  4190   001524                     l1800:
  4191   001524  0601               	decf	lcd_delay_ms@ms^0,f,c
  4192   001526  A0D8               	btfss	status,0,c
  4193   001528  0602               	decf	(lcd_delay_ms@ms+1)^0,f,c
  4194   00152A  2801               	incf	lcd_delay_ms@ms^0,w,c
  4195   00152C  E106               	bnz	u961
  4196   00152E  2802               	incf	(lcd_delay_ms@ms+1)^0,w,c
  4197   001530  A4D8               	btfss	status,2,c
  4198   001532  EF9D  F00A         	goto	u961
  4199   001536  EF9F  F00A         	goto	u960
  4200   00153A                     u961:
  4201   00153A  EF8B  F00A         	goto	l1798
  4202   00153E                     u960:
  4203   00153E  0012               	return		;funcret
  4204   001540                     __end_of_lcd_delay_ms:
  4205                           	callstack 0
  4206                           
  4207 ;; *************** function _is_motor_running *****************
  4208 ;; Defined at:
  4209 ;;		line 66 in file "WaterLevelController.X/src/motor_control.c"
  4210 ;; Parameters:    Size  Location     Type
  4211 ;;		None
  4212 ;; Auto vars:     Size  Location     Type
  4213 ;;		None
  4214 ;; Return value:  Size  Location     Type
  4215 ;;                  1    wreg      _Bool 
  4216 ;; Registers used:
  4217 ;;		wreg, status,2
  4218 ;; Tracked objects:
  4219 ;;		On entry : 0/0
  4220 ;;		On exit  : 0/0
  4221 ;;		Unchanged: 0/0
  4222 ;; Data sizes:     COMRAM   BANK0   BANK1   BANK2   BANK3   BANK4   BANK5
  4223 ;;      Params:         0       0       0       0       0       0       0
  4224 ;;      Locals:         0       0       0       0       0       0       0
  4225 ;;      Temps:          0       0       0       0       0       0       0
  4226 ;;      Totals:         0       0       0       0       0       0       0
  4227 ;;Total ram usage:        0 bytes
  4228 ;; Hardware stack levels used: 1
  4229 ;; This function calls:
  4230 ;;		Nothing
  4231 ;; This function is called by:
  4232 ;;		_main
  4233 ;; This function uses a non-reentrant model
  4234 ;;
  4235                           
  4236                           	psect	text18
  4237   00161E                     __ptext18:
  4238                           	callstack 0
  4239   00161E                     _is_motor_running:
  4240                           	callstack 30
  4241   00161E                     
  4242                           ;WaterLevelController.X/src/motor_control.c: 67:     return motor_state;
  4243   00161E  5058               	movf	_motor_state^0,w,c
  4244   001620  0012               	return		;funcret
  4245   001622                     __end_of_is_motor_running:
  4246                           	callstack 0
  4247                           
  4248 ;; *************** function _is_low_level *****************
  4249 ;; Defined at:
  4250 ;;		line 19 in file "WaterLevelController.X/src/sensors.c"
  4251 ;; Parameters:    Size  Location     Type
  4252 ;;		None
  4253 ;; Auto vars:     Size  Location     Type
  4254 ;;		None
  4255 ;; Return value:  Size  Location     Type
  4256 ;;                  1    wreg      _Bool 
  4257 ;; Registers used:
  4258 ;;		wreg, status,2, status,0, cstack
  4259 ;; Tracked objects:
  4260 ;;		On entry : 0/0
  4261 ;;		On exit  : 0/0
  4262 ;;		Unchanged: 0/0
  4263 ;; Data sizes:     COMRAM   BANK0   BANK1   BANK2   BANK3   BANK4   BANK5
  4264 ;;      Params:         0       0       0       0       0       0       0
  4265 ;;      Locals:         0       0       0       0       0       0       0
  4266 ;;      Temps:          0       0       0       0       0       0       0
  4267 ;;      Totals:         0       0       0       0       0       0       0
  4268 ;;Total ram usage:        0 bytes
  4269 ;; Hardware stack levels used: 1
  4270 ;; Hardware stack levels required when called: 1
  4271 ;; This function calls:
  4272 ;;		___flge
  4273 ;; This function is called by:
  4274 ;;		_main
  4275 ;; This function uses a non-reentrant model
  4276 ;;
  4277                           
  4278                           	psect	text19
  4279   001434                     __ptext19:
  4280                           	callstack 0
  4281   001434                     _is_low_level:
  4282                           	callstack 29
  4283   001434                     
  4284                           ;WaterLevelController.X/src/sensors.c: 20:     return (low_val <= 2);
  4285   001434  0E00               	movlw	0
  4286   001436  6E01               	movwf	___flge@ff1^0,c
  4287   001438  0E00               	movlw	0
  4288   00143A  6E02               	movwf	(___flge@ff1+1)^0,c
  4289   00143C  0E00               	movlw	0
  4290   00143E  6E03               	movwf	(___flge@ff1+2)^0,c
  4291   001440  0E40               	movlw	64
  4292   001442  6E04               	movwf	(___flge@ff1+3)^0,c
  4293   001444  C052  F005         	movff	_low_val,___flge@ff2
  4294   001448  C053  F006         	movff	_low_val+1,___flge@ff2+1
  4295   00144C  C054  F007         	movff	_low_val+2,___flge@ff2+2
  4296   001450  C055  F008         	movff	_low_val+3,___flge@ff2+3
  4297   001454  ECD0  F007         	call	___flge	;wreg free
  4298   001458  B0D8               	btfsc	status,0,c
  4299   00145A  EF31  F00A         	goto	u1581
  4300   00145E  EF34  F00A         	goto	u1580
  4301   001462                     u1581:
  4302   001462  0E01               	movlw	1
  4303   001464  EF35  F00A         	goto	u1590
  4304   001468                     u1580:
  4305   001468  0E00               	movlw	0
  4306   00146A                     u1590:
  4307   00146A  0012               	return		;funcret
  4308   00146C                     __end_of_is_low_level:
  4309                           	callstack 0
  4310                           
  4311 ;; *************** function _is_high_level *****************
  4312 ;; Defined at:
  4313 ;;		line 23 in file "WaterLevelController.X/src/sensors.c"
  4314 ;; Parameters:    Size  Location     Type
  4315 ;;		None
  4316 ;; Auto vars:     Size  Location     Type
  4317 ;;		None
  4318 ;; Return value:  Size  Location     Type
  4319 ;;                  1    wreg      _Bool 
  4320 ;; Registers used:
  4321 ;;		wreg, status,2, status,0, cstack
  4322 ;; Tracked objects:
  4323 ;;		On entry : 0/0
  4324 ;;		On exit  : 0/0
  4325 ;;		Unchanged: 0/0
  4326 ;; Data sizes:     COMRAM   BANK0   BANK1   BANK2   BANK3   BANK4   BANK5
  4327 ;;      Params:         0       0       0       0       0       0       0
  4328 ;;      Locals:         0       0       0       0       0       0       0
  4329 ;;      Temps:          0       0       0       0       0       0       0
  4330 ;;      Totals:         0       0       0       0       0       0       0
  4331 ;;Total ram usage:        0 bytes
  4332 ;; Hardware stack levels used: 1
  4333 ;; Hardware stack levels required when called: 1
  4334 ;; This function calls:
  4335 ;;		___flge
  4336 ;; This function is called by:
  4337 ;;		_main
  4338 ;; This function uses a non-reentrant model
  4339 ;;
  4340                           
  4341                           	psect	text20
  4342   00146C                     __ptext20:
  4343                           	callstack 0
  4344   00146C                     _is_high_level:
  4345                           	callstack 29
  4346   00146C                     
  4347                           ;WaterLevelController.X/src/sensors.c: 24:     return (high_val >= 2);
  4348   00146C  C04E  F001         	movff	_high_val,___flge@ff1
  4349   001470  C04F  F002         	movff	_high_val+1,___flge@ff1+1
  4350   001474  C050  F003         	movff	_high_val+2,___flge@ff1+2
  4351   001478  C051  F004         	movff	_high_val+3,___flge@ff1+3
  4352   00147C  0E00               	movlw	0
  4353   00147E  6E05               	movwf	___flge@ff2^0,c
  4354   001480  0E00               	movlw	0
  4355   001482  6E06               	movwf	(___flge@ff2+1)^0,c
  4356   001484  0E00               	movlw	0
  4357   001486  6E07               	movwf	(___flge@ff2+2)^0,c
  4358   001488  0E40               	movlw	64
  4359   00148A  6E08               	movwf	(___flge@ff2+3)^0,c
  4360   00148C  ECD0  F007         	call	___flge	;wreg free
  4361   001490  B0D8               	btfsc	status,0,c
  4362   001492  EF4D  F00A         	goto	u1601
  4363   001496  EF50  F00A         	goto	u1600
  4364   00149A                     u1601:
  4365   00149A  0E01               	movlw	1
  4366   00149C  EF51  F00A         	goto	u1610
  4367   0014A0                     u1600:
  4368   0014A0  0E00               	movlw	0
  4369   0014A2                     u1610:
  4370   0014A2  0012               	return		;funcret
  4371   0014A4                     __end_of_is_high_level:
  4372                           	callstack 0
  4373                           
  4374 ;; *************** function _is_dry_run_triggered *****************
  4375 ;; Defined at:
  4376 ;;		line 27 in file "WaterLevelController.X/src/sensors.c"
  4377 ;; Parameters:    Size  Location     Type
  4378 ;;		None
  4379 ;; Auto vars:     Size  Location     Type
  4380 ;;		None
  4381 ;; Return value:  Size  Location     Type
  4382 ;;                  1    wreg      _Bool 
  4383 ;; Registers used:
  4384 ;;		wreg, status,2, status,0, cstack
  4385 ;; Tracked objects:
  4386 ;;		On entry : 0/0
  4387 ;;		On exit  : 0/0
  4388 ;;		Unchanged: 0/0
  4389 ;; Data sizes:     COMRAM   BANK0   BANK1   BANK2   BANK3   BANK4   BANK5
  4390 ;;      Params:         0       0       0       0       0       0       0
  4391 ;;      Locals:         0       0       0       0       0       0       0
  4392 ;;      Temps:          0       0       0       0       0       0       0
  4393 ;;      Totals:         0       0       0       0       0       0       0
  4394 ;;Total ram usage:        0 bytes
  4395 ;; Hardware stack levels used: 1
  4396 ;; Hardware stack levels required when called: 1
  4397 ;; This function calls:
  4398 ;;		___flge
  4399 ;; This function is called by:
  4400 ;;		_main
  4401 ;; This function uses a non-reentrant model
  4402 ;;
  4403                           
  4404                           	psect	text21
  4405   0014A4                     __ptext21:
  4406                           	callstack 0
  4407   0014A4                     _is_dry_run_triggered:
  4408                           	callstack 29
  4409   0014A4                     
  4410                           ;WaterLevelController.X/src/sensors.c: 28:     return (dry_val <= 2);
  4411   0014A4  0E00               	movlw	0
  4412   0014A6  6E01               	movwf	___flge@ff1^0,c
  4413   0014A8  0E00               	movlw	0
  4414   0014AA  6E02               	movwf	(___flge@ff1+1)^0,c
  4415   0014AC  0E00               	movlw	0
  4416   0014AE  6E03               	movwf	(___flge@ff1+2)^0,c
  4417   0014B0  0E40               	movlw	64
  4418   0014B2  6E04               	movwf	(___flge@ff1+3)^0,c
  4419   0014B4  C04A  F005         	movff	_dry_val,___flge@ff2
  4420   0014B8  C04B  F006         	movff	_dry_val+1,___flge@ff2+1
  4421   0014BC  C04C  F007         	movff	_dry_val+2,___flge@ff2+2
  4422   0014C0  C04D  F008         	movff	_dry_val+3,___flge@ff2+3
  4423   0014C4  ECD0  F007         	call	___flge	;wreg free
  4424   0014C8  B0D8               	btfsc	status,0,c
  4425   0014CA  EF69  F00A         	goto	u1621
  4426   0014CE  EF6C  F00A         	goto	u1620
  4427   0014D2                     u1621:
  4428   0014D2  0E01               	movlw	1
  4429   0014D4  EF6D  F00A         	goto	u1630
  4430   0014D8                     u1620:
  4431   0014D8  0E00               	movlw	0
  4432   0014DA                     u1630:
  4433   0014DA  0012               	return		;funcret
  4434   0014DC                     __end_of_is_dry_run_triggered:
  4435                           	callstack 0
  4436                           
  4437 ;; *************** function ___flge *****************
  4438 ;; Defined at:
  4439 ;;		line 4 in file "C:\Program Files\Microchip\xc8\v3.00\pic\sources\c99\common\flge.c"
  4440 ;; Parameters:    Size  Location     Type
  4441 ;;  ff1             4    0[COMRAM] _Bool 
  4442 ;;  ff2             4    4[COMRAM] _Bool 
  4443 ;; Auto vars:     Size  Location     Type
  4444 ;;		None
  4445 ;; Return value:  Size  Location     Type
  4446 ;;		None               void
  4447 ;; Registers used:
  4448 ;;		wreg, status,2, status,0
  4449 ;; Tracked objects:
  4450 ;;		On entry : 0/0
  4451 ;;		On exit  : 0/0
  4452 ;;		Unchanged: 0/0
  4453 ;; Data sizes:     COMRAM   BANK0   BANK1   BANK2   BANK3   BANK4   BANK5
  4454 ;;      Params:         8       0       0       0       0       0       0
  4455 ;;      Locals:         0       0       0       0       0       0       0
  4456 ;;      Temps:          4       0       0       0       0       0       0
  4457 ;;      Totals:        12       0       0       0       0       0       0
  4458 ;;Total ram usage:       12 bytes
  4459 ;; Hardware stack levels used: 1
  4460 ;; This function calls:
  4461 ;;		Nothing
  4462 ;; This function is called by:
  4463 ;;		_is_low_level
  4464 ;;		_is_high_level
  4465 ;;		_is_dry_run_triggered
  4466 ;; This function uses a non-reentrant model
  4467 ;;
  4468                           
  4469                           	psect	text22
  4470   000FA0                     __ptext22:
  4471                           	callstack 0
  4472   000FA0                     ___flge:
  4473                           	callstack 29
  4474   000FA0  0E00               	movlw	0
  4475   000FA2  1401               	andwf	___flge@ff1^0,w,c
  4476   000FA4  6E09               	movwf	??___flge^0,c
  4477   000FA6  0E00               	movlw	0
  4478   000FA8  1402               	andwf	(___flge@ff1+1)^0,w,c
  4479   000FAA  6E0A               	movwf	(??___flge+1)^0,c
  4480   000FAC  0E80               	movlw	128
  4481   000FAE  1403               	andwf	(___flge@ff1+2)^0,w,c
  4482   000FB0  6E0B               	movwf	(??___flge+2)^0,c
  4483   000FB2  0E7F               	movlw	127
  4484   000FB4  1404               	andwf	(___flge@ff1+3)^0,w,c
  4485   000FB6  6E0C               	movwf	(??___flge+3)^0,c
  4486   000FB8  5009               	movf	??___flge^0,w,c
  4487   000FBA  100A               	iorwf	(??___flge+1)^0,w,c
  4488   000FBC  100B               	iorwf	(??___flge+2)^0,w,c
  4489   000FBE  100C               	iorwf	(??___flge+3)^0,w,c
  4490   000FC0  A4D8               	btfss	status,2,c
  4491   000FC2  EFE5  F007         	goto	u1511
  4492   000FC6  EFE7  F007         	goto	u1510
  4493   000FCA                     u1511:
  4494   000FCA  EFEF  F007         	goto	l2136
  4495   000FCE                     u1510:
  4496   000FCE  0E00               	movlw	0
  4497   000FD0  6E01               	movwf	___flge@ff1^0,c
  4498   000FD2  0E00               	movlw	0
  4499   000FD4  6E02               	movwf	(___flge@ff1+1)^0,c
  4500   000FD6  0E00               	movlw	0
  4501   000FD8  6E03               	movwf	(___flge@ff1+2)^0,c
  4502   000FDA  0E00               	movlw	0
  4503   000FDC  6E04               	movwf	(___flge@ff1+3)^0,c
  4504   000FDE                     l2136:
  4505   000FDE  0E00               	movlw	0
  4506   000FE0  1405               	andwf	___flge@ff2^0,w,c
  4507   000FE2  6E09               	movwf	??___flge^0,c
  4508   000FE4  0E00               	movlw	0
  4509   000FE6  1406               	andwf	(___flge@ff2+1)^0,w,c
  4510   000FE8  6E0A               	movwf	(??___flge+1)^0,c
  4511   000FEA  0E80               	movlw	128
  4512   000FEC  1407               	andwf	(___flge@ff2+2)^0,w,c
  4513   000FEE  6E0B               	movwf	(??___flge+2)^0,c
  4514   000FF0  0E7F               	movlw	127
  4515   000FF2  1408               	andwf	(___flge@ff2+3)^0,w,c
  4516   000FF4  6E0C               	movwf	(??___flge+3)^0,c
  4517   000FF6  5009               	movf	??___flge^0,w,c
  4518   000FF8  100A               	iorwf	(??___flge+1)^0,w,c
  4519   000FFA  100B               	iorwf	(??___flge+2)^0,w,c
  4520   000FFC  100C               	iorwf	(??___flge+3)^0,w,c
  4521   000FFE  A4D8               	btfss	status,2,c
  4522   001000  EF04  F008         	goto	u1521
  4523   001004  EF06  F008         	goto	u1520
  4524   001008                     u1521:
  4525   001008  EF0E  F008         	goto	l2140
  4526   00100C                     u1520:
  4527   00100C  0E00               	movlw	0
  4528   00100E  6E05               	movwf	___flge@ff2^0,c
  4529   001010  0E00               	movlw	0
  4530   001012  6E06               	movwf	(___flge@ff2+1)^0,c
  4531   001014  0E00               	movlw	0
  4532   001016  6E07               	movwf	(___flge@ff2+2)^0,c
  4533   001018  0E00               	movlw	0
  4534   00101A  6E08               	movwf	(___flge@ff2+3)^0,c
  4535   00101C                     l2140:
  4536   00101C  AE04               	btfss	(___flge@ff1+3)^0,7,c
  4537   00101E  EF13  F008         	goto	u1531
  4538   001022  EF15  F008         	goto	u1530
  4539   001026                     u1531:
  4540   001026  EF1E  F008         	goto	l2144
  4541   00102A                     u1530:
  4542   00102A  6C01               	negf	___flge@ff1^0,c
  4543   00102C  1E02               	comf	(___flge@ff1+1)^0,f,c
  4544   00102E  B0D8               	btfsc	status,0,c
  4545   001030  2A02               	incf	(___flge@ff1+1)^0,f,c
  4546   001032  1E03               	comf	(___flge@ff1+2)^0,f,c
  4547   001034  B0D8               	btfsc	status,0,c
  4548   001036  2A03               	incf	(___flge@ff1+2)^0,f,c
  4549   001038  0E80               	movlw	128
  4550   00103A  5604               	subfwb	(___flge@ff1+3)^0,f,c
  4551   00103C                     l2144:
  4552   00103C  AE08               	btfss	(___flge@ff2+3)^0,7,c
  4553   00103E  EF23  F008         	goto	u1541
  4554   001042  EF25  F008         	goto	u1540
  4555   001046                     u1541:
  4556   001046  EF2E  F008         	goto	l560
  4557   00104A                     u1540:
  4558   00104A  6C05               	negf	___flge@ff2^0,c
  4559   00104C  1E06               	comf	(___flge@ff2+1)^0,f,c
  4560   00104E  B0D8               	btfsc	status,0,c
  4561   001050  2A06               	incf	(___flge@ff2+1)^0,f,c
  4562   001052  1E07               	comf	(___flge@ff2+2)^0,f,c
  4563   001054  B0D8               	btfsc	status,0,c
  4564   001056  2A07               	incf	(___flge@ff2+2)^0,f,c
  4565   001058  0E80               	movlw	128
  4566   00105A  5608               	subfwb	(___flge@ff2+3)^0,f,c
  4567   00105C                     l560:
  4568   00105C  0E00               	movlw	0
  4569   00105E  1A01               	xorwf	___flge@ff1^0,f,c
  4570   001060  0E00               	movlw	0
  4571   001062  1A02               	xorwf	(___flge@ff1+1)^0,f,c
  4572   001064  0E00               	movlw	0
  4573   001066  1A03               	xorwf	(___flge@ff1+2)^0,f,c
  4574   001068  0E80               	movlw	128
  4575   00106A  1A04               	xorwf	(___flge@ff1+3)^0,f,c
  4576   00106C  0E00               	movlw	0
  4577   00106E  1A05               	xorwf	___flge@ff2^0,f,c
  4578   001070  0E00               	movlw	0
  4579   001072  1A06               	xorwf	(___flge@ff2+1)^0,f,c
  4580   001074  0E00               	movlw	0
  4581   001076  1A07               	xorwf	(___flge@ff2+2)^0,f,c
  4582   001078  0E80               	movlw	128
  4583   00107A  1A08               	xorwf	(___flge@ff2+3)^0,f,c
  4584   00107C  5005               	movf	___flge@ff2^0,w,c
  4585   00107E  5C01               	subwf	___flge@ff1^0,w,c
  4586   001080  5006               	movf	(___flge@ff2+1)^0,w,c
  4587   001082  5802               	subwfb	(___flge@ff1+1)^0,w,c
  4588   001084  5007               	movf	(___flge@ff2+2)^0,w,c
  4589   001086  5803               	subwfb	(___flge@ff1+2)^0,w,c
  4590   001088  5008               	movf	(___flge@ff2+3)^0,w,c
  4591   00108A  5804               	subwfb	(___flge@ff1+3)^0,w,c
  4592   00108C  B0D8               	btfsc	status,0,c
  4593   00108E  EF4B  F008         	goto	u1551
  4594   001092  EF4D  F008         	goto	u1550
  4595   001096                     u1551:
  4596   001096  EF50  F008         	goto	l2150
  4597   00109A                     u1550:
  4598   00109A  90D8               	bcf	status,0,c
  4599   00109C  EF51  F008         	goto	l565
  4600   0010A0                     l2150:
  4601   0010A0  80D8               	bsf	status,0,c
  4602   0010A2                     l565:
  4603   0010A2  0012               	return		;funcret
  4604   0010A4                     __end_of___flge:
  4605                           	callstack 0
  4606                           
  4607 ;; *************** function _init_motor *****************
  4608 ;; Defined at:
  4609 ;;		line 17 in file "WaterLevelController.X/src/motor_control.c"
  4610 ;; Parameters:    Size  Location     Type
  4611 ;;		None
  4612 ;; Auto vars:     Size  Location     Type
  4613 ;;		None
  4614 ;; Return value:  Size  Location     Type
  4615 ;;                  1    wreg      void 
  4616 ;; Registers used:
  4617 ;;		wreg, status,2, status,0
  4618 ;; Tracked objects:
  4619 ;;		On entry : 0/0
  4620 ;;		On exit  : 0/0
  4621 ;;		Unchanged: 0/0
  4622 ;; Data sizes:     COMRAM   BANK0   BANK1   BANK2   BANK3   BANK4   BANK5
  4623 ;;      Params:         0       0       0       0       0       0       0
  4624 ;;      Locals:         0       0       0       0       0       0       0
  4625 ;;      Temps:          0       0       0       0       0       0       0
  4626 ;;      Totals:         0       0       0       0       0       0       0
  4627 ;;Total ram usage:        0 bytes
  4628 ;; Hardware stack levels used: 1
  4629 ;; This function calls:
  4630 ;;		Nothing
  4631 ;; This function is called by:
  4632 ;;		_main
  4633 ;; This function uses a non-reentrant model
  4634 ;;
  4635                           
  4636                           	psect	text23
  4637   001600                     __ptext23:
  4638                           	callstack 0
  4639   001600                     _init_motor:
  4640                           	callstack 30
  4641   001600                     
  4642                           ;WaterLevelController.X/src/motor_control.c: 24:     TRISD &= ~(1 << 3 | 1 << 2);
  4643   001600  0EF3               	movlw	243
  4644   001602  1695               	andwf	149,f,c	;volatile
  4645   001604                     
  4646                           ;WaterLevelController.X/src/motor_control.c: 28:     LATDbits.LATD3 = 0;
  4647   001604  968C               	bcf	140,3,c	;volatile
  4648   001606                     
  4649                           ;WaterLevelController.X/src/motor_control.c: 29:     LATDbits.LATD2 = 0;
  4650   001606  948C               	bcf	140,2,c	;volatile
  4651   001608  0012               	return		;funcret
  4652   00160A                     __end_of_init_motor:
  4653                           	callstack 0
  4654                           
  4655 ;; *************** function _init_led *****************
  4656 ;; Defined at:
  4657 ;;		line 23 in file "WaterLevelController.X/src/main.c"
  4658 ;; Parameters:    Size  Location     Type
  4659 ;;		None
  4660 ;; Auto vars:     Size  Location     Type
  4661 ;;		None
  4662 ;; Return value:  Size  Location     Type
  4663 ;;                  1    wreg      void 
  4664 ;; Registers used:
  4665 ;;		wreg, status,2, status,0
  4666 ;; Tracked objects:
  4667 ;;		On entry : 0/0
  4668 ;;		On exit  : 0/0
  4669 ;;		Unchanged: 0/0
  4670 ;; Data sizes:     COMRAM   BANK0   BANK1   BANK2   BANK3   BANK4   BANK5
  4671 ;;      Params:         0       0       0       0       0       0       0
  4672 ;;      Locals:         0       0       0       0       0       0       0
  4673 ;;      Temps:          0       0       0       0       0       0       0
  4674 ;;      Totals:         0       0       0       0       0       0       0
  4675 ;;Total ram usage:        0 bytes
  4676 ;; Hardware stack levels used: 1
  4677 ;; This function calls:
  4678 ;;		Nothing
  4679 ;; This function is called by:
  4680 ;;		_main
  4681 ;; This function uses a non-reentrant model
  4682 ;;
  4683                           
  4684                           	psect	text24
  4685   0015E0                     __ptext24:
  4686                           	callstack 0
  4687   0015E0                     _init_led:
  4688                           	callstack 30
  4689   0015E0                     
  4690                           ;WaterLevelController.X/src/main.c: 26:     lcd_clear();
  4691   0015E0  0E0F               	movlw	15
  4692   0015E2  1695               	andwf	149,f,c	;volatile
  4693                           
  4694                           ;WaterLevelController.X/src/main.c: 27:     lcd_puts("HELLO");
  4695   0015E4  0ECF               	movlw	207
  4696   0015E6  1694               	andwf	148,f,c	;volatile
  4697                           
  4698                           ;WaterLevelController.X/src/main.c: 28:     while (1) {
  4699   0015E8  0E3F               	movlw	63
  4700   0015EA  1693               	andwf	147,f,c	;volatile
  4701   0015EC                     
  4702                           ;WaterLevelController.X/src/main.c: 29:         update_sensor_values();
  4703   0015EC  8A8B               	bsf	139,5,c	;volatile
  4704   0015EE                     
  4705                           ;WaterLevelController.X/src/main.c: 30: 
  4706   0015EE  988B               	bcf	139,4,c	;volatile
  4707   0015F0                     
  4708                           ;WaterLevelController.X/src/main.c: 31:         if (is_low_level() && !is_high_level() )
      +                          {
  4709   0015F0  9E8A               	bcf	138,7,c	;volatile
  4710   0015F2                     
  4711                           ;WaterLevelController.X/src/main.c: 32:             motor_on();
  4712   0015F2  9C8A               	bcf	138,6,c	;volatile
  4713   0015F4  0012               	return		;funcret
  4714   0015F6                     __end_of_init_led:
  4715                           	callstack 0
  4716                           
  4717 ;; *************** function _init_adc *****************
  4718 ;; Defined at:
  4719 ;;		line 6 in file "WaterLevelController.X/src/adc.c"
  4720 ;; Parameters:    Size  Location     Type
  4721 ;;		None
  4722 ;; Auto vars:     Size  Location     Type
  4723 ;;		None
  4724 ;; Return value:  Size  Location     Type
  4725 ;;                  1    wreg      void 
  4726 ;; Registers used:
  4727 ;;		wreg, status,2
  4728 ;; Tracked objects:
  4729 ;;		On entry : 0/0
  4730 ;;		On exit  : 0/0
  4731 ;;		Unchanged: 0/0
  4732 ;; Data sizes:     COMRAM   BANK0   BANK1   BANK2   BANK3   BANK4   BANK5
  4733 ;;      Params:         0       0       0       0       0       0       0
  4734 ;;      Locals:         0       0       0       0       0       0       0
  4735 ;;      Temps:          0       0       0       0       0       0       0
  4736 ;;      Totals:         0       0       0       0       0       0       0
  4737 ;;Total ram usage:        0 bytes
  4738 ;; Hardware stack levels used: 1
  4739 ;; This function calls:
  4740 ;;		Nothing
  4741 ;; This function is called by:
  4742 ;;		_main
  4743 ;; This function uses a non-reentrant model
  4744 ;;
  4745                           
  4746                           	psect	text25
  4747   001596                     __ptext25:
  4748                           	callstack 0
  4749   001596                     _init_adc:
  4750                           	callstack 30
  4751   001596                     
  4752                           ;WaterLevelController.X/src/adc.c: 8:     TRISEbits.TRISE0 = 1;
  4753   001596  8096               	bsf	150,0,c	;volatile
  4754                           
  4755                           ;WaterLevelController.X/src/adc.c: 9:     TRISEbits.TRISE1 = 1;
  4756   001598  8296               	bsf	150,1,c	;volatile
  4757                           
  4758                           ;WaterLevelController.X/src/adc.c: 10:     TRISEbits.TRISE2 = 1;
  4759   00159A  8496               	bsf	150,2,c	;volatile
  4760   00159C                     
  4761                           ;WaterLevelController.X/src/adc.c: 13:     ADCON1 = 0x05;
  4762   00159C  0E05               	movlw	5
  4763   00159E  6EC1               	movwf	193,c	;volatile
  4764   0015A0                     
  4765                           ;WaterLevelController.X/src/adc.c: 16:     ADCON2bits.ADFM = 1;
  4766   0015A0  8EC0               	bsf	192,7,c	;volatile
  4767                           
  4768                           ;WaterLevelController.X/src/adc.c: 17:     ADCON2bits.ACQT = 0b010;
  4769   0015A2  50C0               	movf	192,w,c	;volatile
  4770   0015A4  0BC7               	andlw	-57
  4771   0015A6  0910               	iorlw	16
  4772   0015A8  6EC0               	movwf	192,c	;volatile
  4773                           
  4774                           ;WaterLevelController.X/src/adc.c: 18:     ADCON2bits.ADCS = 0b010;
  4775   0015AA  50C0               	movf	192,w,c	;volatile
  4776   0015AC  0BF8               	andlw	-8
  4777   0015AE  0902               	iorlw	2
  4778   0015B0  6EC0               	movwf	192,c	;volatile
  4779                           
  4780                           ;WaterLevelController.X/src/adc.c: 21:     ADCON0bits.CHS = 0b0101;
  4781   0015B2  50C2               	movf	194,w,c	;volatile
  4782   0015B4  0BC3               	andlw	-61
  4783   0015B6  0914               	iorlw	20
  4784   0015B8  6EC2               	movwf	194,c	;volatile
  4785   0015BA                     
  4786                           ;WaterLevelController.X/src/adc.c: 22:     ADCON0bits.ADON = 1;
  4787   0015BA  80C2               	bsf	194,0,c	;volatile
  4788   0015BC  0012               	return		;funcret
  4789   0015BE                     __end_of_init_adc:
  4790                           	callstack 0
  4791                           
  4792                           	psect	rparam
  4793   000001                     ___rparam_used  equ	1
  4794   000000                     ___param_bank   equ	0
  4795   000000                     __Lparam        equ	__Lrparam
  4796   000000                     __Hparam        equ	__Hrparam
  4797                           
  4798                           	psect	idloc
  4799                           
  4800                           ;Config register IDLOC0 @ 0x200000
  4801                           ;	unspecified, using default values
  4802   200000                     	org	2097152
  4803   200000  FF                 	db	255
  4804                           
  4805                           ;Config register IDLOC1 @ 0x200001
  4806                           ;	unspecified, using default values
  4807   200001                     	org	2097153
  4808   200001  FF                 	db	255
  4809                           
  4810                           ;Config register IDLOC2 @ 0x200002
  4811                           ;	unspecified, using default values
  4812   200002                     	org	2097154
  4813   200002  FF                 	db	255
  4814                           
  4815                           ;Config register IDLOC3 @ 0x200003
  4816                           ;	unspecified, using default values
  4817   200003                     	org	2097155
  4818   200003  FF                 	db	255
  4819                           
  4820                           ;Config register IDLOC4 @ 0x200004
  4821                           ;	unspecified, using default values
  4822   200004                     	org	2097156
  4823   200004  FF                 	db	255
  4824                           
  4825                           ;Config register IDLOC5 @ 0x200005
  4826                           ;	unspecified, using default values
  4827   200005                     	org	2097157
  4828   200005  FF                 	db	255
  4829                           
  4830                           ;Config register IDLOC6 @ 0x200006
  4831                           ;	unspecified, using default values
  4832   200006                     	org	2097158
  4833   200006  FF                 	db	255
  4834                           
  4835                           ;Config register IDLOC7 @ 0x200007
  4836                           ;	unspecified, using default values
  4837   200007                     	org	2097159
  4838   200007  FF                 	db	255
  4839                           
  4840                           	psect	config
  4841                           
  4842                           ; Padding undefined space
  4843   300000                     	org	3145728
  4844   300000  FF                 	db	255
  4845                           
  4846                           ;Config register CONFIG1H @ 0x300001
  4847                           ;	Oscillator Selection bits
  4848                           ;	OSC = INTIO67, Internal oscillator block, port function on RA6 and RA7
  4849                           ;	Fail-Safe Clock Monitor Enable bit
  4850                           ;	FCMEN = 0x0, unprogrammed default
  4851                           ;	Internal/External Oscillator Switchover bit
  4852                           ;	IESO = 0x0, unprogrammed default
  4853   300001                     	org	3145729
  4854   300001  08                 	db	8
  4855                           
  4856                           ;Config register CONFIG2L @ 0x300002
  4857                           ;	unspecified, using default values
  4858                           ;	Power-up Timer Enable bit
  4859                           ;	PWRT = 0x1, unprogrammed default
  4860                           ;	Brown-out Reset Enable bits
  4861                           ;	BOREN = 0x3, unprogrammed default
  4862                           ;	Brown Out Reset Voltage bits
  4863                           ;	BORV = 0x3, unprogrammed default
  4864   300002                     	org	3145730
  4865   300002  1F                 	db	31
  4866                           
  4867                           ;Config register CONFIG2H @ 0x300003
  4868                           ;	Watchdog Timer Enable bit
  4869                           ;	WDT = OFF, WDT disabled (control is placed on the SWDTEN bit)
  4870                           ;	Watchdog Timer Postscale Select bits
  4871                           ;	WDTPS = 0xF, unprogrammed default
  4872   300003                     	org	3145731
  4873   300003  1E                 	db	30
  4874                           
  4875                           ; Padding undefined space
  4876   300004                     	org	3145732
  4877   300004  FF                 	db	255
  4878                           
  4879                           ;Config register CONFIG3H @ 0x300005
  4880                           ;	CCP2 MUX bit
  4881                           ;	CCP2MX = 0x1, unprogrammed default
  4882                           ;	PORTB A/D Enable bit
  4883                           ;	PBADEN = OFF, PORTB<4:0> pins are configured as digital I/O on Reset
  4884                           ;	Low-Power Timer1 Oscillator Enable bit
  4885                           ;	LPT1OSC = 0x0, unprogrammed default
  4886                           ;	MCLR Pin Enable bit
  4887                           ;	MCLRE = OFF, RE3 input pin enabled; MCLR disabled
  4888   300005                     	org	3145733
  4889   300005  01                 	db	1
  4890                           
  4891                           ;Config register CONFIG4L @ 0x300006
  4892                           ;	Stack Full/Underflow Reset Enable bit
  4893                           ;	STVREN = 0x1, unprogrammed default
  4894                           ;	Single-Supply ICSP Enable bit
  4895                           ;	LVP = OFF, Single-Supply ICSP disabled
  4896                           ;	Extended Instruction Set Enable bit
  4897                           ;	XINST = 0x0, unprogrammed default
  4898                           ;	Background Debugger Enable bit
  4899                           ;	DEBUG = 0x1, unprogrammed default
  4900   300006                     	org	3145734
  4901   300006  81                 	db	129
  4902                           
  4903                           ; Padding undefined space
  4904   300007                     	org	3145735
  4905   300007  FF                 	db	255
  4906                           
  4907                           ;Config register CONFIG5L @ 0x300008
  4908                           ;	unspecified, using default values
  4909                           ;	Code Protection bit
  4910                           ;	CP0 = 0x1, unprogrammed default
  4911                           ;	Code Protection bit
  4912                           ;	CP1 = 0x1, unprogrammed default
  4913                           ;	Code Protection bit
  4914                           ;	CP2 = 0x1, unprogrammed default
  4915                           ;	Code Protection bit
  4916                           ;	CP3 = 0x1, unprogrammed default
  4917   300008                     	org	3145736
  4918   300008  0F                 	db	15
  4919                           
  4920                           ;Config register CONFIG5H @ 0x300009
  4921                           ;	unspecified, using default values
  4922                           ;	Boot Block Code Protection bit
  4923                           ;	CPB = 0x1, unprogrammed default
  4924                           ;	Data EEPROM Code Protection bit
  4925                           ;	CPD = 0x1, unprogrammed default
  4926   300009                     	org	3145737
  4927   300009  C0                 	db	192
  4928                           
  4929                           ;Config register CONFIG6L @ 0x30000A
  4930                           ;	unspecified, using default values
  4931                           ;	Write Protection bit
  4932                           ;	WRT0 = 0x1, unprogrammed default
  4933                           ;	Write Protection bit
  4934                           ;	WRT1 = 0x1, unprogrammed default
  4935                           ;	Write Protection bit
  4936                           ;	WRT2 = 0x1, unprogrammed default
  4937                           ;	Write Protection bit
  4938                           ;	WRT3 = 0x1, unprogrammed default
  4939   30000A                     	org	3145738
  4940   30000A  0F                 	db	15
  4941                           
  4942                           ;Config register CONFIG6H @ 0x30000B
  4943                           ;	unspecified, using default values
  4944                           ;	Configuration Register Write Protection bit
  4945                           ;	WRTC = 0x1, unprogrammed default
  4946                           ;	Boot Block Write Protection bit
  4947                           ;	WRTB = 0x1, unprogrammed default
  4948                           ;	Data EEPROM Write Protection bit
  4949                           ;	WRTD = 0x1, unprogrammed default
  4950   30000B                     	org	3145739
  4951   30000B  E0                 	db	224
  4952                           
  4953                           ;Config register CONFIG7L @ 0x30000C
  4954                           ;	unspecified, using default values
  4955                           ;	Table Read Protection bit
  4956                           ;	EBTR0 = 0x1, unprogrammed default
  4957                           ;	Table Read Protection bit
  4958                           ;	EBTR1 = 0x1, unprogrammed default
  4959                           ;	Table Read Protection bit
  4960                           ;	EBTR2 = 0x1, unprogrammed default
  4961                           ;	Table Read Protection bit
  4962                           ;	EBTR3 = 0x1, unprogrammed default
  4963   30000C                     	org	3145740
  4964   30000C  0F                 	db	15
  4965                           
  4966                           ;Config register CONFIG7H @ 0x30000D
  4967                           ;	unspecified, using default values
  4968                           ;	Boot Block Table Read Protection bit
  4969                           ;	EBTRB = 0x1, unprogrammed default
  4970   30000D                     	org	3145741
  4971   30000D  40                 	db	64
  4972                           tosu	equ	0xFFF
  4973                           tosh	equ	0xFFE
  4974                           tosl	equ	0xFFD
  4975                           stkptr	equ	0xFFC
  4976                           pclatu	equ	0xFFB
  4977                           pclath	equ	0xFFA
  4978                           pcl	equ	0xFF9
  4979                           tblptru	equ	0xFF8
  4980                           tblptrh	equ	0xFF7
  4981                           tblptrl	equ	0xFF6
  4982                           tablat	equ	0xFF5
  4983                           prodh	equ	0xFF4
  4984                           prodl	equ	0xFF3
  4985                           indf0	equ	0xFEF
  4986                           postinc0	equ	0xFEE
  4987                           postdec0	equ	0xFED
  4988                           preinc0	equ	0xFEC
  4989                           plusw0	equ	0xFEB
  4990                           fsr0h	equ	0xFEA
  4991                           fsr0l	equ	0xFE9
  4992                           wreg	equ	0xFE8
  4993                           indf1	equ	0xFE7
  4994                           postinc1	equ	0xFE6
  4995                           postdec1	equ	0xFE5
  4996                           preinc1	equ	0xFE4
  4997                           plusw1	equ	0xFE3
  4998                           fsr1h	equ	0xFE2
  4999                           fsr1l	equ	0xFE1
  5000                           bsr	equ	0xFE0
  5001                           indf2	equ	0xFDF
  5002                           postinc2	equ	0xFDE
  5003                           postdec2	equ	0xFDD
  5004                           preinc2	equ	0xFDC
  5005                           plusw2	equ	0xFDB
  5006                           fsr2h	equ	0xFDA
  5007                           fsr2l	equ	0xFD9
  5008                           status	equ	0xFD8

Data Sizes:
    Strings     52
    Constant    0
    Data        4
    BSS         15
    Persistent  0
    Stack       0

Auto Spaces:
    Space          Size  Autos    Used
    COMRAM          127     73      92
    BANK0           128      0       0
    BANK1           256      0       0
    BANK2           256      0       0
    BANK3           256      0       0
    BANK4           256      0       0
    BANK5           256      0       0

Pointer List with Targets:

    lcd_puts@str	PTR const unsigned char  size(1) Largest target is 20
		 -> STR_1(CODE[6]), STR_2(CODE[8]), STR_3(CODE[20]), STR_4(CODE[6]), 
		 -> STR_5(CODE[6]), STR_6(CODE[6]), 


Critical Paths under _main in COMRAM

    _update_sensor_values->_read_adc_voltage
    _read_adc_voltage->___fldiv
    ___flmul->___xxtofl
    ___fldiv->___flmul
    _lcd_puts->_lcd_putc
    _lcd_init->_lcd_send_byte
    _lcd_gotoxy->_lcd_send_byte
    _lcd_clear->_lcd_putc
    _lcd_putc->_lcd_send_byte
    _lcd_send_byte->_lcd_send_nibble
    _lcd_send_nibble->_lcd_delay_us
    _is_low_level->___flge
    _is_high_level->___flge
    _is_dry_run_triggered->___flge

Critical Paths under _main in BANK0

    None.

Critical Paths under _main in BANK1

    None.

Critical Paths under _main in BANK2

    None.

Critical Paths under _main in BANK3

    None.

Critical Paths under _main in BANK4

    None.

Critical Paths under _main in BANK5

    None.

Call Graph Tables:

 ---------------------------------------------------------------------------------
 (Depth) Function   	        Calls       Base Space   Used Autos Params    Refs
 ---------------------------------------------------------------------------------
 (0) _main                                                 4     4      0    5099
                                             71 COMRAM     2     2      0
                           _init_adc
                           _init_led
                         _init_motor
               _is_dry_run_triggered
                      _is_high_level
                       _is_low_level
                   _is_motor_running
                          _lcd_clear
                         _lcd_gotoxy
                           _lcd_init
                           _lcd_puts
                          _motor_off
                           _motor_on
               _update_sensor_values
 ---------------------------------------------------------------------------------
 (1) _update_sensor_values                                 0     0      0    3038
                   _read_adc_voltage
 ---------------------------------------------------------------------------------
 (2) _read_adc_voltage                                     7     3      4    3038
                                             64 COMRAM     7     3      4
                            ___fldiv
                            ___flmul
                           ___xxtofl
                       _read_adc_raw
 ---------------------------------------------------------------------------------
 (3) _read_adc_raw                                         5     3      2      58
                                              0 COMRAM     5     3      2
 ---------------------------------------------------------------------------------
 (3) ___xxtofl                                            14    10      4     337
                                              0 COMRAM    14    10      4
 ---------------------------------------------------------------------------------
 (3) ___flmul                                             25    17      8    1468
                                             14 COMRAM    25    17      8
                           ___xxtofl (ARG)
 ---------------------------------------------------------------------------------
 (3) ___fldiv                                             25    17      8    1123
                                             39 COMRAM    25    17      8
                            ___flmul (ARG)
                           ___xxtofl (ARG)
 ---------------------------------------------------------------------------------
 (1) _motor_on                                             0     0      0       0
 ---------------------------------------------------------------------------------
 (1) _motor_off                                            0     0      0       0
 ---------------------------------------------------------------------------------
 (1) _lcd_puts                                             1     0      1     381
                                              7 COMRAM     1     0      1
                           _lcd_putc
 ---------------------------------------------------------------------------------
 (1) _lcd_init                                             1     1      0     459
                                              6 COMRAM     1     1      0
                       _lcd_delay_ms
                      _lcd_send_byte
                    _lcd_send_nibble
 ---------------------------------------------------------------------------------
 (1) _lcd_gotoxy                                           8     7      1     325
                                              6 COMRAM     8     7      1
                      _lcd_send_byte
 ---------------------------------------------------------------------------------
 (1) _lcd_clear                                            0     0      0     330
                           _lcd_putc
 ---------------------------------------------------------------------------------
 (2) _lcd_putc                                             1     1      0     330
                                              6 COMRAM     1     1      0
                       _lcd_delay_ms
                      _lcd_send_byte
 ---------------------------------------------------------------------------------
 (3) _lcd_send_byte                                        2     1      1     246
                                              4 COMRAM     2     1      1
                       _lcd_delay_us
                    _lcd_send_nibble
 ---------------------------------------------------------------------------------
 (4) _lcd_send_nibble                                      2     2      0     141
                                              2 COMRAM     2     2      0
                       _lcd_delay_us
 ---------------------------------------------------------------------------------
 (5) _lcd_delay_us                                         2     0      2      25
                                              0 COMRAM     2     0      2
 ---------------------------------------------------------------------------------
 (3) _lcd_delay_ms                                         3     1      2      26
                                              0 COMRAM     3     1      2
 ---------------------------------------------------------------------------------
 (1) _is_motor_running                                     0     0      0       0
 ---------------------------------------------------------------------------------
 (1) _is_low_level                                         0     0      0     188
                             ___flge
 ---------------------------------------------------------------------------------
 (1) _is_high_level                                        0     0      0     188
                             ___flge
 ---------------------------------------------------------------------------------
 (1) _is_dry_run_triggered                                 0     0      0     188
                             ___flge
 ---------------------------------------------------------------------------------
 (2) ___flge                                              12     4      8     188
                                              0 COMRAM    12     4      8
 ---------------------------------------------------------------------------------
 (1) _init_motor                                           0     0      0       0
 ---------------------------------------------------------------------------------
 (1) _init_led                                             0     0      0       0
 ---------------------------------------------------------------------------------
 (1) _init_adc                                             0     0      0       0
 ---------------------------------------------------------------------------------
 Estimated maximum stack depth 5
 ---------------------------------------------------------------------------------

 Call Graph Graphs:

 _main (ROOT)
   _init_adc
   _init_led
   _init_motor
   _is_dry_run_triggered
     ___flge
   _is_high_level
     ___flge
   _is_low_level
     ___flge
   _is_motor_running
   _lcd_clear
     _lcd_putc
       _lcd_delay_ms
       _lcd_send_byte
         _lcd_delay_us
         _lcd_send_nibble
           _lcd_delay_us
   _lcd_gotoxy
     _lcd_send_byte
   _lcd_init
     _lcd_delay_ms
     _lcd_send_byte
     _lcd_send_nibble
   _lcd_puts
     _lcd_putc
   _motor_off
   _motor_on
   _update_sensor_values
     _read_adc_voltage
       ___fldiv
         ___flmul (ARG)
           ___xxtofl (ARG)
         ___xxtofl (ARG)
       ___flmul
       ___xxtofl
       _read_adc_raw

Address spaces:
Name               Size   Autos  Total    Usage
BIGRAM            1535      0       0      0.0%
BITBANK5           256      0       0      0.0%
BANK5              256      0       0      0.0%
BITBANK4           256      0       0      0.0%
BANK4              256      0       0      0.0%
BITBANK3           256      0       0      0.0%
BANK3              256      0       0      0.0%
BITBANK2           256      0       0      0.0%
BANK2              256      0       0      0.0%
BITBANK1           256      0       0      0.0%
BANK1              256      0       0      0.0%
BITBANK0           128      0       0      0.0%
BANK0              128      0       0      0.0%
BITCOMRAM          127      0       0      0.0%
COMRAM             127     73      92     72.4%
BITBIGSFRh          61      0       0      0.0%
BITBIGSFRllh        26      0       0      0.0%
BITBIGSFRlh         26      0       0      0.0%
BITBIGSFRlllh        8      0       0      0.0%
BITBIGSFRllll        2      0       0      0.0%
STACK                0      0       0      0.0%
DATA                 0      0      92      0.0%


Microchip Technology PIC18 Macro Assembler V3.00 build 20241204225717 
Symbol Table                                                                                   Sat Jul 12 23:47:06 2025

           ?_read_adc_voltage 0041                  ___fldiv@aexp 0040                  ___fldiv@bexp 003F  
    __end_of_is_motor_running 1622                  ___fldiv@sign 0038            ??_read_adc_voltage 0045  
                          l23 137A                            l24 1360                            l19 15BC  
                          l29 132A                            l90 15DE                            l96 153E  
                          l88 15C2                            l99 1230                ?_lcd_send_byte 0005  
         read_adc_raw@channel 0005         ?_is_dry_run_triggered 0001                           l102 1594  
                         l112 1432                           l123 1510                           l107 12AE  
                         l220 1608                           l126 1618                           l118 156A  
                         l223 15FE                           l226 1610                           l235 1620  
                         l180 1164                           l182 1198                           l169 15F4  
                         l283 13BE                           l179 1164                           l292 14DA  
                         l286 146A                           l560 105C                           l289 14A2  
                         l565 10A2                           l913 0A5A                           l916 08F0  
                         l917 090E                           l909 06FA                           l926 0A1C  
                         l918 0966                           l950 0E42                           l919 0954  
                         l953 0F9E                           l890 0D0A                           l882 0C12  
                         l891 0CF8                           l964 0F36                           l877 0DEA  
                         l957 0EDA                           l879 0C4E                           l888 0C94  
                         l889 0CB2                           u930 15DE                           u931 15DA  
                         u940 133E                           u941 133A                           u950 136E  
                         u951 136A                           u960 153E                           u961 153A  
                         u980 0A76                           u981 0A72                           u990 0A88  
                         u975 1576                           u991 0A84                           u976 1578  
                         wreg 0FE8                  ___flmul@aexp 0020                  ___flmul@bexp 0021  
                ___flmul@sign 001B                  ___flmul@temp 0026                  ___flmul@prod 0022  
                 lcd_gotoxy@x 000E                   lcd_gotoxy@y 0007                ??_lcd_delay_ms 0003  
              ??_lcd_delay_us 0003                          l2000 0796                          l2010 07DC  
                        l2002 07A4                          l2020 084A                          l2012 07F6  
                        l2004 07B0                          l2100 0F18                          l2030 08E0  
                        l2022 0874                          l2014 0806                          l2006 07C0  
                        l2110 0F6E                          l2102 0F26                          l2032 08EE  
                        l2024 08AA                          l2016 0822                          l2008 07CC  
                        l2112 0F7E                          l2104 0F44                          l2120 12B2  
                        l2200 10A4                          l2130 1428                          l2042 0976  
                        l2050 09BE                          l2034 0900                          l2026 08B8  
                        l2018 082E                          l2114 0F8C                          l2106 0F46  
                        l2122 12C0                          l2210 10B4                          l2202 10A4  
                        l2140 101C                          l2132 0FA0                          l2060 0A20  
                        l2052 09D8                          l2044 0982                          l2036 091E  
                        l2028 08D6                          l2116 0F8E                          l2108 0F4A  
                        l2220 10DC                          l2212 10B8                          l2204 10A8  
                        l1510 15EE                          l2150 10A0                          l2142 102A  
                        l2134 0FCE                          l2126 13FC                          l2070 0A4A  
                        l2062 0A30                          l2054 09EC                          l2046 0990  
                        l2038 094C                          l2230 1110                          l2222 10F0  
                        l2214 10BC                          l2206 10AC                          l1360 159C  
                        l1512 15F0                          l1520 1606                          l2144 103C  
                        l2136 0FDE                          l2128 140E                          l2064 0A3E  
                        l2056 0A06                          l2048 09BA                          l2080 0E52  
                        l2240 114C                          l2232 1114                          l2224 10F4  
                        l2216 10C4                          l2208 10B0                          l1362 15A0  
                        l1514 15F2                          l1506 15E0                          l2146 104A  
                        l2138 100C                          l2170 1274                          l2154 1232  
                        l2066 0A40                          l2058 0A16                          l2090 0E90  
                        l2082 0E68                          l2074 0DEE                          l2242 114E  
                        l2234 1130                          l2250 1168                          l2226 10FA  
                        l2218 10C8                          l1364 15BA                          l1508 15EC  
                        l1516 1600                          l2148 109A                          l2180 14DE  
                        l2164 1250                          l2156 1242                          l2172 1540  
                        l1532 15F6                          l2068 0A46                          l2092 0EC2  
                        l2076 0DFE                          l2252 117C                          l2244 1152  
                        l2236 1132                          l2228 110E                          l1358 1596  
                        l1518 1604                          l1542 161E                          l2182 14EE  
                        l2166 1262                          l2158 124E                          l2174 1544  
                        l1534 15FA                          l2094 0EC4                          l2086 0E7C  
                        l2078 0E0C                          l2254 1190                          l2246 115C  
                        l2238 1148                          l2192 146C                          l1800 1524  
                        l2184 1612                          l2168 1264                          l2176 1550  
                        l1536 160A                          l2096 0ED0                          l2088 0E84  
                        l1802 156E                          l2178 1552                          l1810 0A5C  
                        l2098 0F0C                          l2186 137C                          l2196 14A4  
                        l2188 1434                          l1804 1578                          l1900 0C84  
                        l1820 0A98                          l1812 0A68                          l1806 1580  
                        l1902 0C92                          l1830 0AC6                          l1822 0AA8  
                        l1814 0A76                          l1808 1588                          l1912 0D1A  
                        l1920 0D62                          l1904 0CA4                          l1840 0AFC  
                        l1832 0ACC                          l1824 0AAA                          l1816 0A78  
                        l1770 11A4                          l1930 0DC6                          l1922 0D7C  
                        l1914 0D26                          l1906 0CC2                          l1850 0B3A  
                        l1842 0B0C                          l1834 0ADA                          l1818 0A88  
                        l1826 0AB0                          l1772 1214                          l1932 0DCA  
                        l1924 0D92                          l1916 0D34                          l1908 0CF0  
                        l1852 0B4A                          l1860 0B6A                          l1844 0B0E  
                        l1836 0ADC                          l1828 0AC0                          l1780 132E  
                        l1766 15BE                          l1774 1216                          l1934 0DD8  
                        l1926 0DAC                          l1918 0D5E                          l1870 0BA8  
                        l1862 0B7A                          l1854 0B52                          l1838 0AEC  
                        l1846 0B14                          l1950 0650                          l1790 135E  
                        l1782 133E                          l1768 15C4                          l1776 1222  
                        l1936 0DDE                          l1928 0DC4                          l1880 0BEE  
                        l1872 0BB8                          l1864 0B7A                          l1856 0B56  
                        l1848 0B24                          l1960 0688                          l1952 0652  
                        l1792 136E                          l1778 1224                          l1938 0DE0  
                        l1890 0C3C                          l1882 0C02                          l1874 0BC8  
                        l1970 06B4                          l1962 0698                          l1954 0662  
                        l1946 0636                          l1786 134A                          l1796 1512  
                        l1892 0C4C                          l1884 0C10                          l1876 0BD8  
                        l1868 0B8E                          l1980 070A                          l1972 06C4  
                        l1964 069E                          l1956 0672                          l1948 0642  
                        l1788 1356                          l1798 1516                          l1894 0C5E  
                        l1886 0C1C                          l1878 0BDE                          l1990 0744  
                        l1982 071A                          l1974 06D4                          l1966 06A4  
                        l1958 0682                          l1896 0C74                          l1888 0C3A  
                        l1992 075A                          l1976 06E4                          l1968 06B2  
                        l1898 0C7A                          l1994 0766                          l1986 072E  
                        l1978 06EA                          l1996 077E                          l1988 073A  
                        l1998 078A                          STR_1 062F                          STR_2 0615  
                        STR_3 0601                          STR_4 0623                          STR_5 0629  
                        STR_6 061D                          u1000 0A98                          u1001 0A94  
                        u1010 0ADA                          u1011 0AD6                          u1100 0C74  
                        u1020 0AEC                          u1101 0C70                          u1021 0AE8  
                        u1110 0C92                          u1030 0AFC                          u1111 0C8E  
                        u1031 0AF8                          u1200 0DD8                          u1120 0CB2  
                        u1040 0B3A                          u1201 0DD4                          u1121 0CAE  
                        u1041 0B36                          u1130 0CC2                          u1050 0B7A  
                        u1210 0650                          u1131 0CBE                          u1051 0B76  
                        u1211 064C                          u1140 0CF0                          u1060 0BEE  
                        u1300 08EE                          u1220 0662                          u1141 0CEC  
                        u1061 0BEA                          u1301 08EA                          u1221 065E  
                        u1150 0D06                          u1070 0C10                          u1310 090E  
                        u1230 0672                          u1151 0D02                          u1071 0C0C  
                        u1311 090A                          u1231 066E                          u1160 0D1A  
                        u1080 0C3A                          u1320 091E                          u1240 06B2  
                        u1400 0DFE                          u1161 0D16                          u1081 0C36  
                        u1321 091A                          u1241 06AE                          u1401 0DFA  
                        u1170 0D34                          u1090 0C5E                          u1330 094C  
                        u1250 06C4                          u1410 0E0C                          u1171 0D30  
                        u1091 0C5A                          u1331 0948                          u1251 06C0  
                        u1411 0E08                          u1500 140E                          u1180 0D7C  
                        u1340 0962                          u1260 06D4                          u1420 0E68  
                        u1501 140A                          u1181 0D78                          u1341 095E  
                        u1261 06D0                          u1421 0E64                          u1510 0FCE  
                        u1190 0DAC                          u1350 0976                          u1270 070A  
                        u1430 0EBE                          u1511 0FCA                          u1191 0DA8  
                        u1351 0972                          u1271 0706                          u1431 0EBA  
                        u1520 100C                          u1600 14A0                          u1360 0990  
                        u1280 071A                          u1440 0F08                          u1521 1008  
                        u1601 149A                          u1361 098C                          u1281 0716  
                        u1441 0F04                          u1530 102A                          u1610 14A2  
                        u1370 09D8                          u1290 0894                          u1450 0F26  
                        u1531 1026                          u1371 09D4                          u1451 0F22  
                        u1540 104A                          u1620 14D8                          u1380 0A06  
                        u1460 0F36                          u1541 1046                          u1621 14D2  
                        u1381 0A02                          u1461 0F32                          u1550 109A  
                        u1630 14DA                          u1390 0A3E                          u1470 0F44  
                        u1551 1096                          u1391 0A3A                          u1295 088A  
                        u1471 0F40                          u1560 1274                          u1480 0F7E  
                        u1640 10DC                          u1561 1270                          u1481 0F7A  
                        u1641 10D8                          u1570 156A                          u1490 0F8C  
                        u1650 10F0                          u1571 1566                          u1491 0F88  
                        u1651 10EC                          u1580 1468                          u1660 110E  
                        u1581 1462                          u1661 110A                          u1590 146A  
                        u1670 1130                          u1671 112C                          u1680 117C  
                        u1681 1178                          u1690 1190                          u1691 118C  
                        u1747 113C                          u1757 1358                          u1767 151C  
            ?_lcd_send_nibble 0001                          _main 10A4                          fsr2h 0FDA  
                        indf2 0FDF                          fsr1l 0FE1                          fsr2l 0FD9  
                 lcd_puts@str 0008                          prodh 0FF4                          prodl 0FF3  
                        start 7FFC               ___fldiv@new_exp 0039        ??_update_sensor_values 0048  
                ___param_bank 0000                         ?_main 0001               __end_of___fldiv 0DEC  
                       _EEADR 0FA9               __end_of___flmul 0A5C                lcd_delay_ms@ms 0001  
              lcd_delay_us@us 0001       read_adc_voltage@channel 0047                         _TRISB 0F93  
                       _TRISC 0F94                         _TRISD 0F95                         tablat 0FF5  
                       status 0FD8               __initialization 13C0                  __end_of_main 11A2  
             ??_lcd_send_byte 0006        ??_is_dry_run_triggered 000D                        ??_main 0048  
               __activetblptr 0001                        _ADCON0 0FC2                        _ADCON1 0FC1  
                      _ADRESH 0FC4                        _ADRESL 0FC3                        _EEDATA 0FA8  
                      _EECON2 0FA7                 ?_read_adc_raw 0001              __end_of___xxtofl 0FA0  
               ?_is_low_level 0001              __end_of_lcd_init 12B0                        ___flge 0FA0  
            __end_of_lcd_putc 1434              __end_of_lcd_puts 156C                     ??___fldiv 0030  
                   ??___flmul 0017          __end_of_lcd_delay_ms 1540          __end_of_lcd_delay_us 15E0  
            __end_of_init_adc 15BE              __end_of_init_led 15F6                        clear_0 13E6  
                      isa$std 0001                  __pdataCOMRAM 0059              __end_of_motor_on 1600  
                __mediumconst 0600                        tblptrh 0FF7                        tblptrl 0FF6  
                      tblptru 0FF8                 _is_high_level 146C                    ___flge@ff1 0001  
                  ___flge@ff2 0005                  ___xxtofl@arg 000B                  ___xxtofl@exp 000A  
                ___xxtofl@val 0001                ??_read_adc_raw 0003                    __accesstop 0080  
     __end_of__initialization 13EC           read_adc_voltage@raw 0045                ??_is_low_level 000D  
               ___rparam_used 0001                __pcstackCOMRAM 0001             ?_is_motor_running 0001  
          ??_is_motor_running 0001                lcd_gotoxy@addr 000A                ?_is_high_level 0001  
               _dry_run_count 0056                       ?___flge 0001                     ?___xxtofl 0001  
                  _lcd_gotoxy 14DC                     ?_lcd_init 0001                     ?_lcd_putc 0001  
                   ?_lcd_puts 0008                     ?_init_adc 0001                     ?_init_led 0001  
                     __Hparam 0000                       __Lparam 0000             __end_of_lcd_clear 161A  
                   ?_motor_on 0001                       ___fldiv 0A5C                       ___flmul 0636  
                __psmallconst 0600                       __pcinit 13C0                    _init_motor 1600  
                     __ramtop 0600                       __ptext0 10A4                       __ptext1 137C  
                     __ptext2 12B0                       __ptext3 132C                       __ptext4 0DEC  
                     __ptext5 0636                       __ptext6 0A5C                       __ptext7 15F6  
                     __ptext8 160A                       __ptext9 1540          __end_of_read_adc_raw 137C  
             ??_is_high_level 000D                       _dry_val 004A          __end_of_is_low_level 146C  
                  ??___xxtofl 0005                       _low_val 0052                    ??_lcd_init 0007  
                  ??_lcd_putc 0007                    ??_lcd_puts 0009          end_of_initialization 13EC  
                _lcd_delay_ms 1512                  _lcd_delay_us 15BE                    ??_init_adc 0001  
                  ??_init_led 0001             __end_of_motor_off 1612                    ??_motor_on 0001  
                     postdec1 0FE5                       postinc0 0FEE         __end_of_lcd_send_byte 1596  
                   _PORTCbits 0F82                 ___xxtofl@sign 0009              _read_adc_voltage 12B0  
                   _TRISBbits 0F93                     _TRISCbits 0F94                     _TRISEbits 0F96  
                 ?_lcd_gotoxy 0007                   ___fldiv@grs 003B                   ___fldiv@rem 0034  
                 ___flmul@grs 001C                __end_of___flge 10A4                 __pidataCOMRAM 161A  
                 ?_init_motor 0001             ??_lcd_send_nibble 0003               lcd_gotoxy@F3092 0059  
         start_initialization 13C0                      ??___flge 0009                     ___fldiv@a 002C  
                   ___fldiv@b 0028                     ___flmul@a 0013                     ___flmul@b 000F  
                 __pbssCOMRAM 004A                  _read_adc_raw 132C                  _is_low_level 1434  
                    ?___fldiv 0028                      ?___flmul 000F                     _lcd_clear 1612  
           lcd_send_byte@byte 0005                   __smallconst 0600  __end_of_update_sensor_values 13C0  
                    _LATBbits 0F8A                      _LATCbits 0F8B                      _LATDbits 0F8C  
         lcd_send_byte@isData 0006      __end_of_read_adc_voltage 132C                     _motor_off 160A  
                  ?_lcd_clear 0001                    _ADCON0bits 0FC2                    _ADCON2bits 0FC0  
                   lcd_init@i 0007                     lcd_putc@c 0007         __end_of_is_high_level 14A4  
                ??_lcd_gotoxy 0008              _is_motor_running 161E                     copy_data0 13D4  
__end_of_is_dry_run_triggered 14DC                    _EECON1bits 0FA6               _lcd_send_nibble 11A2  
                    __Hrparam 0000                      __Lrparam 0000                  __Lsmallconst 0600  
                  ?_motor_off 0001            __end_of_lcd_gotoxy 1512                  ??_init_motor 0001  
                    ___xxtofl 0DEC                      __ptext10 1232                      __ptext11 14DC  
                    __ptext20 146C                      __ptext12 1612                      __ptext21 14A4  
                    __ptext13 13FA                      __ptext22 0FA0                      __ptext14 156C  
                    __ptext23 1600                      __ptext15 11A2                      __ptext24 15E0  
                    __ptext16 15BE                      __ptext25 1596                      __ptext17 1512  
                    __ptext18 161E                      __ptext19 1434                      _lcd_init 1232  
                    _high_val 004E                      _lcd_putc 13FA                      _lcd_puts 1540  
                    _init_adc 1596                      _init_led 15E0            __end_of_init_motor 160A  
                    _motor_on 15F6                      isa$xinst 0000          _update_sensor_values 137C  
                 ??_lcd_clear 0008                    _INTCONbits 0FF2       __end_of_lcd_send_nibble 1232  
                 ??_motor_off 0001         ?_update_sensor_values 0001                 _lcd_send_byte 156C  
        _is_dry_run_triggered 14A4                   _motor_state 0058                 ?_lcd_delay_ms 0001  
               ?_lcd_delay_us 0001         lcd_send_nibble@nibble 0004  
